   1               		.file	"main.c"
   2               	__SP_H__ = 0x3e
   3               	__SP_L__ = 0x3d
   4               	__SREG__ = 0x3f
   5               	__tmp_reg__ = 0
   6               	__zero_reg__ = 1
   7               		.text
   8               	.Ltext0:
   9               		.cfi_sections	.debug_frame
  10               		.file 0 "/Users/Dertien/git/usbprog/avrispmk2klon" "main.c"
  11               	.global	__vector_1
  13               	__vector_1:
  14               	.LFB70:
  15               		.file 1 "main.c"
   1:main.c        **** /*
   2:main.c        **** * usbprog - A Downloader/Uploader for AVR device programmers
   3:main.c        **** * Copyright (C) 2006 Benedikt Sauter
   4:main.c        **** * Copyright (C) 2008 Hartmut Birr
   5:main.c        **** *
   6:main.c        **** * This program is free software; you can redistribute it and/or modify
   7:main.c        **** * it under the terms of the GNU General Public License as published by
   8:main.c        **** * the Free Software Foundation; either version 2 of the License, or
   9:main.c        **** * (at your option) any later version.
  10:main.c        **** *
  11:main.c        **** * This program is distributed in the hope that it will be useful,
  12:main.c        **** * but WITHOUT ANY WARRANTY; without even the implied warranty of
  13:main.c        **** * MERCHANTABILITY or FITNESS FOR A PARTICULAR PURPOSE.  See the
  14:main.c        **** * GNU General Public License for more details.
  15:main.c        **** *
  16:main.c        **** * You should have received a copy of the GNU General Public License
  17:main.c        **** * along with this program; if not, write to the Free Software
  18:main.c        **** * Foundation, Inc., 59 Temple Place, Suite 330, Boston, MA  02111-1307  USA
  19:main.c        **** */
  20:main.c        **** 
  21:main.c        **** #include <stdlib.h>
  22:main.c        **** #include <stdint.h>
  23:main.c        **** #include <avr/io.h>
  24:main.c        **** #include <stdint.h>
  25:main.c        **** #include <avr/interrupt.h>
  26:main.c        **** #include <inttypes.h>
  27:main.c        **** #include <string.h>
  28:main.c        **** 
  29:main.c        **** 
  30:main.c        **** //#define AT89MODE
  31:main.c        **** 
  32:main.c        **** #define F_CPU 16000000
  33:main.c        **** #include <util/delay.h>
  34:main.c        **** 
  35:main.c        **** #define DEBUG_ON 0
  36:main.c        **** 
  37:main.c        **** #include "wait.h"
  38:main.c        **** 
  39:main.c        **** #include "../usbprog_base/firmwarelib/avrupdate.h"
  40:main.c        **** 
  41:main.c        **** #if DEBUG_ON
  42:main.c        **** #include "uart.h"
  43:main.c        **** #endif
  44:main.c        **** 
  45:main.c        **** #include "usbn2mc.h"
  46:main.c        **** 
  47:main.c        **** /* command descriptions for mk2 */
  48:main.c        **** #include "avr069.h"
  49:main.c        **** 
  50:main.c        **** #include <avr/pgmspace.h>
  51:main.c        **** 
  52:main.c        **** #include <avr/eeprom.h>
  53:main.c        **** 
  54:main.c        **** #ifndef EEMEM
  55:main.c        **** // alle Textstellen EEMEM im Quellcode durch __attribute__ ... ersetzen
  56:main.c        **** #define EEMEM  __attribute__ ((section (".eeprom")))
  57:main.c        **** #endif
  58:main.c        **** 
  59:main.c        **** uint8_t ee_sck_duration EEMEM = 1;
  60:main.c        **** uint16_t sck_delay_value;
  61:main.c        **** 
  62:main.c        **** /**Structures to parse incoming packets more clearly
  63:main.c        ****  */
  64:main.c        **** 
  65:main.c        **** struct cmd_enter_progmode_s {
  66:main.c        ****   unsigned char id;
  67:main.c        ****   unsigned char timeout;
  68:main.c        ****   unsigned char stabdelay;
  69:main.c        ****   unsigned char cmdexedelay;
  70:main.c        ****   unsigned char synchloops;
  71:main.c        ****   unsigned char bytedelay;
  72:main.c        ****   unsigned char pollvalue;
  73:main.c        ****   unsigned char pollindex;
  74:main.c        ****   unsigned char cmd1;
  75:main.c        ****   unsigned char cmd2;
  76:main.c        ****   unsigned char cmd3;
  77:main.c        ****   unsigned char cmd4;
  78:main.c        **** };
  79:main.c        **** 
  80:main.c        **** struct cmd_spi_multi_s {
  81:main.c        ****   unsigned char id;
  82:main.c        ****   unsigned char numTx;
  83:main.c        ****   unsigned char numRx;
  84:main.c        ****   unsigned char rxStart;
  85:main.c        ****   unsigned char txData[256]; //This can only be used if multiple-packet commands are supported
  86:main.c        **** };
  87:main.c        **** 
  88:main.c        **** #define DDR_SPI     DDRB
  89:main.c        **** #define SS PB4
  90:main.c        **** #define MOSI  PB5
  91:main.c        **** #define MISO  PB6
  92:main.c        **** #define SCK   PB7
  93:main.c        **** #define RESET_PIN   PB0
  94:main.c        **** #define RESET_PORT  PORTB
  95:main.c        **** #define LED_PIN     PA4
  96:main.c        **** #define LED_PORT    PORTA
  97:main.c        **** 
  98:main.c        **** #define LED_on     (LED_PORT   |=  (1 << LED_PIN))   // red led
  99:main.c        **** #define LED_off    (LED_PORT   &= ~(1 << LED_PIN))
 100:main.c        **** #define RESET_high (RESET_PORT |=  (1 << RESET_PIN))
 101:main.c        **** #define RESET_low  (RESET_PORT &= ~(1 << RESET_PIN)) // reset
 102:main.c        **** 
 103:main.c        **** /*** prototypes and global vars ***/
 104:main.c        **** /* send a command back to pc */
 105:main.c        **** void CommandAnswer(uint8_t length);
 106:main.c        **** 
 107:main.c        **** volatile struct usbprog_t {
 108:main.c        ****   char lastcmd;
 109:main.c        ****   int longpackage;
 110:main.c        ****   int cmdpackage;
 111:main.c        ****   int datatogl;
 112:main.c        ****   unsigned int sck_duration;
 113:main.c        ****   int fragmentnumber;
 114:main.c        ****   int avrstudio;
 115:main.c        ****   int reset_pol;
 116:main.c        **** } usbprog;
 117:main.c        **** 
 118:main.c        **** #define _BUF_LEN     300
 119:main.c        **** #define _TMP_OFFSET  32
 120:main.c        **** volatile char answer[_BUF_LEN];
 121:main.c        **** 
 122:main.c        **** struct pgmmode_t {
 123:main.c        ****   unsigned short numbytes;
 124:main.c        ****   uint8_t mode;
 125:main.c        ****   uint8_t delay;
 126:main.c        ****   uint8_t cmd1;
 127:main.c        ****   uint8_t cmd2;
 128:main.c        ****   uint8_t cmd3;
 129:main.c        ****   uint8_t poll1;
 130:main.c        ****   uint8_t poll2;
 131:main.c        ****   uint32_t address;
 132:main.c        ****   uint32_t pageaddress;
 133:main.c        ****   uint8_t status;
 134:main.c        ****   uint16_t poll_address;
 135:main.c        ****   uint8_t poll_address_valid :1;
 136:main.c        ****   uint8_t poll_address_odd   :1;
 137:main.c        ****   uint8_t large_flash        :1;
 138:main.c        ****   uint16_t ext_address;
 139:main.c        **** } pgmmode;
 140:main.c        **** 
 141:main.c        **** 
 142:main.c        **** const unsigned short sck_lookup[]PROGMEM =
 143:main.c        **** {
 144:main.c        ****     0, 0, 0, 0, 2, 6, 14, 18, 20, 21, 23, 24, 26, 27, 29, 30, 32, 33, 36, 38,
 145:main.c        ****     39, 41, 44, 45, 48, 50, 53, 56, 59, 62, 65, 68, 71, 75, 78, 83, 87, 92, 96,
 146:main.c        ****     101, 105, 111, 116, 122, 128, 135, 141, 149, 156, 164, 171, 180, 189, 198,
 147:main.c        ****     209, 218, 230, 240, 252, 264, 278, 291, 306, 321, 338, 354, 371, 390, 408,
 148:main.c        ****     429, 450, 473, 495, 521, 546, 573, 602, 630, 662, 695, 729, 763, 803, 842,
 149:main.c        ****     884, 927, 972, 1020, 1069, 1122, 1177, 1236, 1297, 1360, 1428, 1498, 1571,
 150:main.c        ****     1648, 1729, 1814, 1904, 1998, 2096, 2198, 2307, 2419, 2539, 2664, 2795,
 151:main.c        ****     2930, 3074, 3229, 3387, 3550, 3729, 3911, 4104, 4299, 4512, 4737, 4973,
 152:main.c        ****     5206, 5462, 5728, 6022, 6307, 6620, 6942, 7297, 7660, 8030, 8401, 8847,
 153:main.c        ****     9257, 9706, 10202, 10693, 11233, 11762, 12343, 12985, 13603, 14283, 14923,
 154:main.c        ****     15623, 16391, 17239, 18016, 19045, 19998, 20962, 22000, 23092, 24211, 25410,
 155:main.c        ****     26664, 27970, 29323, 30767, 32308, 33896, 35521, 37311, 39136
 156:main.c        **** };
 157:main.c        **** 
 158:main.c        **** #define MAX_SCK_DURATION ((sizeof(sck_lookup)/sizeof(unsigned short))-1)
 159:main.c        **** 
 160:main.c        **** 
 161:main.c        **** 
 162:main.c        **** ISR(INT0_vect)
 163:main.c        **** {
  16               		.loc 1 163 1 view -0
  17               		.cfi_startproc
  18 0000 1F92      		push r1
  19               		.cfi_def_cfa_offset 3
  20               		.cfi_offset 1, -2
  21 0002 0F92      		push r0
  22               		.cfi_def_cfa_offset 4
  23               		.cfi_offset 0, -3
  24 0004 0FB6      		in r0,__SREG__
  25 0006 0F92      		push r0
  26 0008 1124      		clr __zero_reg__
  27 000a 2F93      		push r18
  28               		.cfi_def_cfa_offset 5
  29               		.cfi_offset 18, -4
  30 000c 3F93      		push r19
  31               		.cfi_def_cfa_offset 6
  32               		.cfi_offset 19, -5
  33 000e 4F93      		push r20
  34               		.cfi_def_cfa_offset 7
  35               		.cfi_offset 20, -6
  36 0010 5F93      		push r21
  37               		.cfi_def_cfa_offset 8
  38               		.cfi_offset 21, -7
  39 0012 6F93      		push r22
  40               		.cfi_def_cfa_offset 9
  41               		.cfi_offset 22, -8
  42 0014 7F93      		push r23
  43               		.cfi_def_cfa_offset 10
  44               		.cfi_offset 23, -9
  45 0016 8F93      		push r24
  46               		.cfi_def_cfa_offset 11
  47               		.cfi_offset 24, -10
  48 0018 9F93      		push r25
  49               		.cfi_def_cfa_offset 12
  50               		.cfi_offset 25, -11
  51 001a AF93      		push r26
  52               		.cfi_def_cfa_offset 13
  53               		.cfi_offset 26, -12
  54 001c BF93      		push r27
  55               		.cfi_def_cfa_offset 14
  56               		.cfi_offset 27, -13
  57 001e EF93      		push r30
  58               		.cfi_def_cfa_offset 15
  59               		.cfi_offset 30, -14
  60 0020 FF93      		push r31
  61               		.cfi_def_cfa_offset 16
  62               		.cfi_offset 31, -15
  63               	/* prologue: Signal */
  64               	/* frame size = 0 */
  65               	/* stack size = 15 */
  66               	.L__stack_usage = 15
 164:main.c        ****   USBNInterrupt();
  67               		.loc 1 164 3 view .LVU1
  68 0022 0E94 0000 		call USBNInterrupt
  69               	.LVL0:
  70               	/* epilogue start */
 165:main.c        **** }
  71               		.loc 1 165 1 is_stmt 0 view .LVU2
  72 0026 FF91      		pop r31
  73 0028 EF91      		pop r30
  74 002a BF91      		pop r27
  75 002c AF91      		pop r26
  76 002e 9F91      		pop r25
  77 0030 8F91      		pop r24
  78 0032 7F91      		pop r23
  79 0034 6F91      		pop r22
  80 0036 5F91      		pop r21
  81 0038 4F91      		pop r20
  82 003a 3F91      		pop r19
  83 003c 2F91      		pop r18
  84 003e 0F90      		pop r0
  85 0040 0FBE      		out __SREG__,r0
  86 0042 0F90      		pop r0
  87 0044 1F90      		pop r1
  88 0046 1895      		reti
  89               		.cfi_endproc
  90               	.LFE70:
  92               	.global	USBNDecodeVendorRequest
  94               	USBNDecodeVendorRequest:
  95               	.LVL1:
  96               	.LFB71:
 166:main.c        **** 
 167:main.c        **** /* id need for live update of firmware */
 168:main.c        **** void USBNDecodeVendorRequest(DeviceRequest *req)
 169:main.c        **** {
  97               		.loc 1 169 1 is_stmt 1 view -0
  98               		.cfi_startproc
  99               	/* prologue: function */
 100               	/* frame size = 0 */
 101               	/* stack size = 0 */
 102               	.L__stack_usage = 0
 170:main.c        ****   if(req->bRequest == STARTAVRUPDATE)
 103               		.loc 1 170 3 view .LVU4
 104               		.loc 1 170 5 is_stmt 0 view .LVU5
 105 0048 FC01      		movw r30,r24
 106 004a 8181      		ldd r24,Z+1
 107               	.LVL2:
 108               		.loc 1 170 5 view .LVU6
 109 004c 8130      		cpi r24,lo8(1)
 110 004e 01F4      		brne .L2
 171:main.c        ****     avrupdate_start();
 111               		.loc 1 171 5 is_stmt 1 view .LVU7
 112 0050 0C94 0000 		jmp avrupdate_start
 113               	.LVL3:
 114               	.L2:
 115               	/* epilogue start */
 172:main.c        **** }
 116               		.loc 1 172 1 is_stmt 0 view .LVU8
 117 0054 0895      		ret
 118               		.cfi_endproc
 119               	.LFE71:
 121               	.global	spi_init
 123               	spi_init:
 124               	.LFB72:
 173:main.c        **** 
 174:main.c        **** 
 175:main.c        **** 
 176:main.c        **** void spi_init(void)
 177:main.c        **** {
 125               		.loc 1 177 1 is_stmt 1 view -0
 126               		.cfi_startproc
 127               	/* prologue: function */
 128               	/* frame size = 0 */
 129               	/* stack size = 0 */
 130               	.L__stack_usage = 0
 178:main.c        ****   usbprog.sck_duration = eeprom_read_byte(&ee_sck_duration);
 131               		.loc 1 178 3 view .LVU10
 132               		.loc 1 178 26 is_stmt 0 view .LVU11
 133 0056 80E0      		ldi r24,lo8(ee_sck_duration)
 134 0058 90E0      		ldi r25,hi8(ee_sck_duration)
 135 005a 0E94 0000 		call eeprom_read_byte
 136               	.LVL4:
 137               		.loc 1 178 26 discriminator 1 view .LVU12
 138 005e 90E0      		ldi r25,0
 139               		.loc 1 178 24 discriminator 1 view .LVU13
 140 0060 9093 0000 		sts usbprog+7+1,r25
 141 0064 8093 0000 		sts usbprog+7,r24
 179:main.c        ****   if(usbprog.sck_duration > MAX_SCK_DURATION)  // prevent error when EEPROM is erased
 142               		.loc 1 179 3 is_stmt 1 view .LVU14
 143               		.loc 1 179 13 is_stmt 0 view .LVU15
 144 0068 8091 0000 		lds r24,usbprog+7
 145 006c 9091 0000 		lds r25,usbprog+7+1
 146               		.loc 1 179 5 view .LVU16
 147 0070 843A      		cpi r24,-92
 148 0072 9105      		cpc r25,__zero_reg__
 149 0074 00F0      		brlo .L5
 180:main.c        ****     usbprog.sck_duration = 0x03;  //  1MHz as default
 150               		.loc 1 180 5 is_stmt 1 view .LVU17
 151               		.loc 1 180 26 is_stmt 0 view .LVU18
 152 0076 83E0      		ldi r24,lo8(3)
 153 0078 90E0      		ldi r25,0
 154 007a 9093 0000 		sts usbprog+7+1,r25
 155 007e 8093 0000 		sts usbprog+7,r24
 156               	.L5:
 181:main.c        **** 
 182:main.c        ****   PORTB   &=  ~((1 << SCK)|(1<<MISO)|(1<<MOSI)/*|(1<<RESET_PIN)*/);  // SCK have to be low in IDLE
 157               		.loc 1 182 3 is_stmt 1 view .LVU19
 158               		.loc 1 182 11 is_stmt 0 view .LVU20
 159 0082 88B3      		in r24,0x18
 160 0084 8F71      		andi r24,lo8(31)
 161 0086 88BB      		out 0x18,r24
 183:main.c        ****   DDR_SPI &=~(1 << MISO);
 162               		.loc 1 183 3 is_stmt 1 view .LVU21
 163               		.loc 1 183 11 is_stmt 0 view .LVU22
 164 0088 BE98      		cbi 0x17,6
 184:main.c        ****   DDR_SPI = (1 << MOSI)|(1 << SCK)|(1 << RESET_PIN);
 165               		.loc 1 184 3 is_stmt 1 view .LVU23
 166               		.loc 1 184 11 is_stmt 0 view .LVU24
 167 008a 81EA      		ldi r24,lo8(-95)
 168 008c 87BB      		out 0x17,r24
 185:main.c        ****   // switches back to slave mode !
 186:main.c        ****   DDR_SPI |= (1<<SS); // make SS an output for SPI master.
 169               		.loc 1 186 3 is_stmt 1 view .LVU25
 170               		.loc 1 186 11 is_stmt 0 view .LVU26
 171 008e BC9A      		sbi 0x17,4
 187:main.c        **** 
 188:main.c        ****   SPCR = 0;
 172               		.loc 1 188 3 is_stmt 1 view .LVU27
 173               		.loc 1 188 8 is_stmt 0 view .LVU28
 174 0090 1DB8      		out 0xd,__zero_reg__
 189:main.c        ****   SPSR = 0;
 175               		.loc 1 189 3 is_stmt 1 view .LVU29
 176               		.loc 1 189 8 is_stmt 0 view .LVU30
 177 0092 1EB8      		out 0xe,__zero_reg__
 190:main.c        **** 
 191:main.c        ****   //This delay value is also required in hardware SPI mode in spi_pulseclockonce
 192:main.c        ****   sck_delay_value=pgm_read_word(&(sck_lookup[usbprog.sck_duration]));
 178               		.loc 1 192 3 is_stmt 1 view .LVU31
 179               	.LBB131:
 180               		.loc 1 192 19 view .LVU32
 181 0094 E091 0000 		lds r30,usbprog+7
 182 0098 F091 0000 		lds r31,usbprog+7+1
 183 009c EE0F      		lsl r30
 184 009e FF1F      		rol r31
 185 00a0 E050      		subi r30,lo8(-(sck_lookup))
 186 00a2 F040      		sbci r31,hi8(-(sck_lookup))
 187               	.LVL5:
 188               		.loc 1 192 19 view .LVU33
 189               		.loc 1 192 19 view .LVU34
 190               	/* #APP */
 191               	 ;  192 "main.c" 1
 192 00a4 2591      		lpm r18,Z+
 193 00a6 3591      		lpm r19,Z+
 194               	 ;  0 "" 2
 195               	.LVL6:
 196               		.loc 1 192 19 view .LVU35
 197               	/* #NOAPP */
 198               	.LBE131:
 199               		.loc 1 192 18 is_stmt 0 view .LVU36
 200 00a8 3093 0000 		sts sck_delay_value+1,r19
 201 00ac 2093 0000 		sts sck_delay_value,r18
 193:main.c        **** 
 194:main.c        ****     switch(usbprog.sck_duration)
 202               		.loc 1 194 5 is_stmt 1 view .LVU37
 203               		.loc 1 194 19 is_stmt 0 view .LVU38
 204 00b0 E091 0000 		lds r30,usbprog+7
 205 00b4 F091 0000 		lds r31,usbprog+7+1
 206               		.loc 1 194 5 view .LVU39
 207 00b8 E730      		cpi r30,7
 208 00ba F105      		cpc r31,__zero_reg__
 209 00bc 00F4      		brsh .L6
 210 00be E050      		subi r30,lo8(-(gs(.L8)))
 211 00c0 F040      		sbci r31,hi8(-(gs(.L8)))
 212 00c2 0C94 0000 		jmp __tablejump2__
 213               		.section	.jumptables.gcc.spi_init,"a",@progbits
 214               		.p2align	1
 215               	.L8:
 216 0000 0000      		.word gs(.L14)
 217 0002 0000      		.word gs(.L13)
 218 0004 0000      		.word gs(.L12)
 219 0006 0000      		.word gs(.L11)
 220 0008 0000      		.word gs(.L10)
 221 000a 0000      		.word gs(.L9)
 222 000c 0000      		.word gs(.L7)
 223               		.text
 224               	.L14:
 195:main.c        ****     {
 196:main.c        ****        case 0x00:  //08MHz
 197:main.c        ****         SPCR = (1<<SPE)|(1<<MSTR);
 225               		.loc 1 197 9 is_stmt 1 view .LVU40
 226               		.loc 1 197 14 is_stmt 0 view .LVU41
 227 00c6 80E5      		ldi r24,lo8(80)
 228               	.L16:
 198:main.c        ****         SPSR = (1<<SPI2X);
 199:main.c        ****         break;
 200:main.c        **** 
 201:main.c        ****       case 0x01:  //04MHz
 202:main.c        ****         SPCR = (1<<SPE)|(1<<MSTR)|(1<<SPR0)|(1<<SPR1);
 229               		.loc 1 202 14 view .LVU42
 230 00c8 8DB9      		out 0xd,r24
 203:main.c        ****         SPSR = (1<<SPI2X);
 231               		.loc 1 203 9 is_stmt 1 view .LVU43
 232               		.loc 1 203 14 is_stmt 0 view .LVU44
 233 00ca 81E0      		ldi r24,lo8(1)
 234 00cc 8EB9      		out 0xe,r24
 204:main.c        ****         break;
 235               		.loc 1 204 9 is_stmt 1 view .LVU45
 236 00ce 0895      		ret
 237               	.L13:
 202:main.c        ****         SPSR = (1<<SPI2X);
 238               		.loc 1 202 9 view .LVU46
 202:main.c        ****         SPSR = (1<<SPI2X);
 239               		.loc 1 202 14 is_stmt 0 view .LVU47
 240 00d0 83E5      		ldi r24,lo8(83)
 241 00d2 00C0      		rjmp .L16
 242               	.L12:
 205:main.c        **** 
 206:main.c        ****       case 0x02:  //02MHz
 207:main.c        ****         SPCR = (1<<SPE)|(1<<MSTR)|(1<<SPR0);
 243               		.loc 1 207 9 is_stmt 1 view .LVU48
 244               		.loc 1 207 14 is_stmt 0 view .LVU49
 245 00d4 81E5      		ldi r24,lo8(81)
 246 00d6 00C0      		rjmp .L16
 247               	.L11:
 208:main.c        ****         SPSR = (1<<SPI2X);
 209:main.c        ****         break;
 210:main.c        **** 
 211:main.c        ****       case 0x03:	//01MHz
 212:main.c        ****         SPCR = (1<<SPE)|(1<<MSTR)|(1<<SPR0);
 248               		.loc 1 212 9 is_stmt 1 view .LVU50
 249               		.loc 1 212 14 is_stmt 0 view .LVU51
 250 00d8 81E5      		ldi r24,lo8(81)
 251               	.L17:
 213:main.c        ****         SPSR = 0x00;
 214:main.c        ****         break;
 215:main.c        **** 
 216:main.c        ****       case 0x04:  //500kHz
 217:main.c        ****         SPCR = (1<<SPE)|(1<<MSTR)|(1<<SPR1);
 218:main.c        ****         SPSR = (1<<SPI2X);
 219:main.c        ****         break;
 220:main.c        **** 
 221:main.c        ****       case 0x05:  //250kHz
 222:main.c        ****         SPCR = (1<<SPE)|(1<<MSTR)|(1<<SPR1);
 223:main.c        ****         SPSR = 0x00;
 224:main.c        ****         break;
 225:main.c        **** 
 226:main.c        ****       case 0x06:  //125kHz
 227:main.c        ****         SPCR = (1<<SPE)|(1<<MSTR)|(1<<SPR0)|(1<<SPR1);
 252               		.loc 1 227 14 view .LVU52
 253 00da 8DB9      		out 0xd,r24
 228:main.c        ****         SPSR = 0x00;
 254               		.loc 1 228 9 is_stmt 1 view .LVU53
 255               		.loc 1 228 14 is_stmt 0 view .LVU54
 256 00dc 1EB8      		out 0xe,__zero_reg__
 229:main.c        ****         break;
 257               		.loc 1 229 9 is_stmt 1 view .LVU55
 258 00de 0895      		ret
 259               	.L10:
 217:main.c        ****         SPSR = (1<<SPI2X);
 260               		.loc 1 217 9 view .LVU56
 217:main.c        ****         SPSR = (1<<SPI2X);
 261               		.loc 1 217 14 is_stmt 0 view .LVU57
 262 00e0 82E5      		ldi r24,lo8(82)
 263 00e2 00C0      		rjmp .L16
 264               	.L9:
 222:main.c        ****         SPSR = 0x00;
 265               		.loc 1 222 9 is_stmt 1 view .LVU58
 222:main.c        ****         SPSR = 0x00;
 266               		.loc 1 222 14 is_stmt 0 view .LVU59
 267 00e4 82E5      		ldi r24,lo8(82)
 268 00e6 00C0      		rjmp .L17
 269               	.L7:
 227:main.c        ****         SPSR = 0x00;
 270               		.loc 1 227 9 is_stmt 1 view .LVU60
 227:main.c        ****         SPSR = 0x00;
 271               		.loc 1 227 14 is_stmt 0 view .LVU61
 272 00e8 83E5      		ldi r24,lo8(83)
 273 00ea 00C0      		rjmp .L17
 274               	.L6:
 230:main.c        **** 
 231:main.c        **** 	  default:
 232:main.c        ****         PORTB   &=  ~(1 << SCK);
 275               		.loc 1 232 9 is_stmt 1 view .LVU62
 276               		.loc 1 232 17 is_stmt 0 view .LVU63
 277 00ec C798      		cbi 0x18,7
 233:main.c        ****         DDR_SPI &=~(1 << MISO);
 278               		.loc 1 233 9 is_stmt 1 view .LVU64
 279               		.loc 1 233 17 is_stmt 0 view .LVU65
 280 00ee BE98      		cbi 0x17,6
 234:main.c        ****         DDR_SPI = (1 << MOSI)|(1 << SCK)|(1 << RESET_PIN);
 281               		.loc 1 234 9 is_stmt 1 view .LVU66
 282               		.loc 1 234 17 is_stmt 0 view .LVU67
 283 00f0 87BB      		out 0x17,r24
 235:main.c        **** 		break;
 284               		.loc 1 235 3 is_stmt 1 view .LVU68
 285               	/* epilogue start */
 236:main.c        ****     }
 237:main.c        **** }
 286               		.loc 1 237 1 is_stmt 0 view .LVU69
 287 00f2 0895      		ret
 288               		.cfi_endproc
 289               	.LFE72:
 291               	.global	spi_idle
 293               	spi_idle:
 294               	.LFB73:
 238:main.c        **** 
 239:main.c        **** 
 240:main.c        **** void spi_idle(void)
 241:main.c        **** {
 295               		.loc 1 241 1 is_stmt 1 view -0
 296               		.cfi_startproc
 297               	/* prologue: function */
 298               	/* frame size = 0 */
 299               	/* stack size = 0 */
 300               	.L__stack_usage = 0
 242:main.c        ****   //DDR_SPI = 0x00;
 243:main.c        ****   DDR_SPI &= ~( (1<<MOSI) | (1<<SCK) | (1<<RESET_PIN) ); // don't make SS an input !
 301               		.loc 1 243 3 view .LVU71
 302               		.loc 1 243 11 is_stmt 0 view .LVU72
 303 00f4 87B3      		in r24,0x17
 304 00f6 8E75      		andi r24,lo8(94)
 305 00f8 87BB      		out 0x17,r24
 244:main.c        ****   //PORTB = 0xFF;	// only temp for jar
 245:main.c        ****   PORTB = 0x00; // holger klabunde: tri state without pullups
 306               		.loc 1 245 3 is_stmt 1 view .LVU73
 307               		.loc 1 245 9 is_stmt 0 view .LVU74
 308 00fa 18BA      		out 0x18,__zero_reg__
 309               	/* epilogue start */
 246:main.c        **** }
 310               		.loc 1 246 1 view .LVU75
 311 00fc 0895      		ret
 312               		.cfi_endproc
 313               	.LFE73:
 315               	.global	spi_active
 317               	spi_active:
 318               	.LFB74:
 247:main.c        **** 
 248:main.c        **** void spi_active(void)
 249:main.c        **** {
 319               		.loc 1 249 1 is_stmt 1 view -0
 320               		.cfi_startproc
 321               	/* prologue: function */
 322               	/* frame size = 0 */
 323               	/* stack size = 0 */
 324               	.L__stack_usage = 0
 250:main.c        ****   PORTB   &=  ~((1<<MISO)|(1 << MOSI)|(1 << SCK)|(1 << RESET_PIN));  // switch off unused Pullup re
 325               		.loc 1 250 3 view .LVU77
 326               		.loc 1 250 11 is_stmt 0 view .LVU78
 327 00fe 88B3      		in r24,0x18
 328 0100 8E71      		andi r24,lo8(30)
 329 0102 88BB      		out 0x18,r24
 251:main.c        ****   DDR_SPI &=~(1 << MISO);
 330               		.loc 1 251 3 is_stmt 1 view .LVU79
 331               		.loc 1 251 11 is_stmt 0 view .LVU80
 332 0104 BE98      		cbi 0x17,6
 252:main.c        ****   DDR_SPI |= (1 << MOSI)|(1 << SCK)|(1 << RESET_PIN);
 333               		.loc 1 252 3 is_stmt 1 view .LVU81
 334 0106 87B3      		in r24,0x17
 335               		.loc 1 252 11 is_stmt 0 view .LVU82
 336 0108 816A      		ori r24,lo8(-95)
 337 010a 87BB      		out 0x17,r24
 338               	/* epilogue start */
 253:main.c        **** }
 339               		.loc 1 253 1 view .LVU83
 340 010c 0895      		ret
 341               		.cfi_endproc
 342               	.LFE74:
 344               	.global	spi_inout
 346               	spi_inout:
 347               	.LVL7:
 348               	.LFB75:
 254:main.c        **** 
 255:main.c        **** /** Full-duplex SPI communication. For sck_duration<=6, use hardware SPI. For
 256:main.c        ****  * >=6, use software spi.
 257:main.c        ****  * From AT90S2313 datasheet, timing is:
 258:main.c        ****  * set data, wait for 1/2 period, clock high, wait another
 259:main.c        ****  * 1/2 period, read data, clock low. In other words: AVR clocks in on rising
 260:main.c        ****  * edge, AVRISP clocks in on falling edge
 261:main.c        ****  *
 262:main.c        ****  * However, for AT89xx (AT89S51, chapter 21), there is a setup period from data
 263:main.c        ****  * to sck high and also a hold period from sck low to data change. Therefore,
 264:main.c        ****  * sck and mosi run 90 degree out of phase:
 265:main.c        ****  * -Setup data, wait
 266:main.c        ****  * -SCK high, wait
 267:main.c        ****  * -Read data, wait
 268:main.c        ****  * -SCK low, wait
 269:main.c        ****  *
 270:main.c        ****  * This guarantees compatibility with both AVR and AT89 controllers, when
 271:main.c        ****  * soft SPI mode is used.
 272:main.c        ****  */
 273:main.c        **** 
 274:main.c        **** unsigned char spi_inout(unsigned char data)
 275:main.c        **** {
 349               		.loc 1 275 1 is_stmt 1 view -0
 350               		.cfi_startproc
 351               	/* prologue: function */
 352               	/* frame size = 0 */
 353               	/* stack size = 0 */
 354               	.L__stack_usage = 0
 355               		.loc 1 275 1 is_stmt 0 view .LVU85
 356 010e 482F      		mov r20,r24
 276:main.c        ****   unsigned char bitvalue,din=0;
 357               		.loc 1 276 3 is_stmt 1 view .LVU86
 358               	.LVL8:
 277:main.c        **** 
 278:main.c        ****   if(usbprog.sck_duration <= 6)
 359               		.loc 1 278 3 view .LVU87
 360               		.loc 1 278 13 is_stmt 0 view .LVU88
 361 0110 8091 0000 		lds r24,usbprog+7
 362 0114 9091 0000 		lds r25,usbprog+7+1
 363               	.LVL9:
 364               		.loc 1 278 5 view .LVU89
 365 0118 0797      		sbiw r24,7
 366 011a 00F4      		brsh .L27
 279:main.c        ****   {
 280:main.c        ****     SPDR = data;
 367               		.loc 1 280 5 is_stmt 1 view .LVU90
 368               		.loc 1 280 10 is_stmt 0 view .LVU91
 369 011c 4FB9      		out 0xf,r20
 281:main.c        ****     while ( !(SPSR & (1 << SPIF)) ) ;
 370               		.loc 1 281 5 is_stmt 1 view .LVU92
 371               	.L22:
 372               		.loc 1 281 13 discriminator 1 view .LVU93
 373 011e 779B      		sbis 0xe,7
 374 0120 00C0      		rjmp .L22
 282:main.c        ****     return SPDR;
 375               		.loc 1 282 5 view .LVU94
 376               		.loc 1 282 12 is_stmt 0 view .LVU95
 377 0122 8FB1      		in r24,0xf
 378 0124 0895      		ret
 379               	.L27:
 380               		.loc 1 282 12 view .LVU96
 381 0126 28E0      		ldi r18,lo8(8)
 382 0128 30E0      		ldi r19,0
 383               	.LBB142:
 384               	.LBB143:
 276:main.c        **** 
 385               		.loc 1 276 26 view .LVU97
 386 012a 80E0      		ldi r24,0
 283:main.c        ****   }
 284:main.c        ****   else    // software SPI with delay
 285:main.c        ****   {
 286:main.c        ****     for (bitvalue=128;bitvalue;bitvalue>>=1)
 387               		.loc 1 286 18 view .LVU98
 388 012c 90E8      		ldi r25,lo8(-128)
 389               	.L21:
 390               	.LVL10:
 287:main.c        ****     {
 288:main.c        ****       //set new data
 289:main.c        ****       if(data & bitvalue)
 391               		.loc 1 289 7 is_stmt 1 view .LVU99
 392               		.loc 1 289 10 is_stmt 0 view .LVU100
 393 012e 592F      		mov r21,r25
 394 0130 5423      		and r21,r20
 395               		.loc 1 289 9 view .LVU101
 396 0132 5115      		cp r21, __zero_reg__
 397 0134 01F0      		breq .L24
 290:main.c        ****         PORTB   |=  (1 << MOSI);
 398               		.loc 1 290 9 is_stmt 1 view .LVU102
 399               		.loc 1 290 17 is_stmt 0 view .LVU103
 400 0136 C59A      		sbi 0x18,5
 401               	.L25:
 291:main.c        ****       else
 292:main.c        ****         PORTB   &=  ~(1 << MOSI);
 293:main.c        **** 
 294:main.c        ****       //wait 1/4 period
 295:main.c        ****       _delay_loop_2(sck_delay_value>>1);
 402               		.loc 1 295 7 is_stmt 1 view .LVU104
 403               	.LVL11:
 404               	.LBB144:
 405               	.LBI144:
 406               		.file 2 "/opt/local/avr/include/util/delay_basic.h"
   1:/opt/local/avr/include/util/delay_basic.h **** /* Copyright (c) 2002, Marek Michalkiewicz
   2:/opt/local/avr/include/util/delay_basic.h ****    Copyright (c) 2007 Joerg Wunsch
   3:/opt/local/avr/include/util/delay_basic.h ****    All rights reserved.
   4:/opt/local/avr/include/util/delay_basic.h **** 
   5:/opt/local/avr/include/util/delay_basic.h ****    Redistribution and use in source and binary forms, with or without
   6:/opt/local/avr/include/util/delay_basic.h ****    modification, are permitted provided that the following conditions are met:
   7:/opt/local/avr/include/util/delay_basic.h **** 
   8:/opt/local/avr/include/util/delay_basic.h ****    * Redistributions of source code must retain the above copyright
   9:/opt/local/avr/include/util/delay_basic.h ****      notice, this list of conditions and the following disclaimer.
  10:/opt/local/avr/include/util/delay_basic.h **** 
  11:/opt/local/avr/include/util/delay_basic.h ****    * Redistributions in binary form must reproduce the above copyright
  12:/opt/local/avr/include/util/delay_basic.h ****      notice, this list of conditions and the following disclaimer in
  13:/opt/local/avr/include/util/delay_basic.h ****      the documentation and/or other materials provided with the
  14:/opt/local/avr/include/util/delay_basic.h ****      distribution.
  15:/opt/local/avr/include/util/delay_basic.h **** 
  16:/opt/local/avr/include/util/delay_basic.h ****    * Neither the name of the copyright holders nor the names of
  17:/opt/local/avr/include/util/delay_basic.h ****      contributors may be used to endorse or promote products derived
  18:/opt/local/avr/include/util/delay_basic.h ****      from this software without specific prior written permission.
  19:/opt/local/avr/include/util/delay_basic.h **** 
  20:/opt/local/avr/include/util/delay_basic.h ****   THIS SOFTWARE IS PROVIDED BY THE COPYRIGHT HOLDERS AND CONTRIBUTORS "AS IS"
  21:/opt/local/avr/include/util/delay_basic.h ****   AND ANY EXPRESS OR IMPLIED WARRANTIES, INCLUDING, BUT NOT LIMITED TO, THE
  22:/opt/local/avr/include/util/delay_basic.h ****   IMPLIED WARRANTIES OF MERCHANTABILITY AND FITNESS FOR A PARTICULAR PURPOSE
  23:/opt/local/avr/include/util/delay_basic.h ****   ARE DISCLAIMED. IN NO EVENT SHALL THE COPYRIGHT OWNER OR CONTRIBUTORS BE
  24:/opt/local/avr/include/util/delay_basic.h ****   LIABLE FOR ANY DIRECT, INDIRECT, INCIDENTAL, SPECIAL, EXEMPLARY, OR
  25:/opt/local/avr/include/util/delay_basic.h ****   CONSEQUENTIAL DAMAGES (INCLUDING, BUT NOT LIMITED TO, PROCUREMENT OF
  26:/opt/local/avr/include/util/delay_basic.h ****   SUBSTITUTE GOODS OR SERVICES; LOSS OF USE, DATA, OR PROFITS; OR BUSINESS
  27:/opt/local/avr/include/util/delay_basic.h ****   INTERRUPTION) HOWEVER CAUSED AND ON ANY THEORY OF LIABILITY, WHETHER IN
  28:/opt/local/avr/include/util/delay_basic.h ****   CONTRACT, STRICT LIABILITY, OR TORT (INCLUDING NEGLIGENCE OR OTHERWISE)
  29:/opt/local/avr/include/util/delay_basic.h ****   ARISING IN ANY WAY OUT OF THE USE OF THIS SOFTWARE, EVEN IF ADVISED OF THE
  30:/opt/local/avr/include/util/delay_basic.h ****   POSSIBILITY OF SUCH DAMAGE. */
  31:/opt/local/avr/include/util/delay_basic.h **** 
  32:/opt/local/avr/include/util/delay_basic.h **** /* $Id$ */
  33:/opt/local/avr/include/util/delay_basic.h **** 
  34:/opt/local/avr/include/util/delay_basic.h **** #ifndef _UTIL_DELAY_BASIC_H_
  35:/opt/local/avr/include/util/delay_basic.h **** #define _UTIL_DELAY_BASIC_H_ 1
  36:/opt/local/avr/include/util/delay_basic.h **** 
  37:/opt/local/avr/include/util/delay_basic.h **** #include <inttypes.h>
  38:/opt/local/avr/include/util/delay_basic.h **** 
  39:/opt/local/avr/include/util/delay_basic.h **** #if !defined(__DOXYGEN__)
  40:/opt/local/avr/include/util/delay_basic.h **** static __inline__ void _delay_loop_1(uint8_t __count) __attribute__((__always_inline__));
  41:/opt/local/avr/include/util/delay_basic.h **** static __inline__ void _delay_loop_2(uint16_t __count) __attribute__((__always_inline__));
  42:/opt/local/avr/include/util/delay_basic.h **** #endif
  43:/opt/local/avr/include/util/delay_basic.h **** 
  44:/opt/local/avr/include/util/delay_basic.h **** /** \file */
  45:/opt/local/avr/include/util/delay_basic.h **** /** \defgroup util_delay_basic <util/delay_basic.h>: Basic busy-wait delay loops
  46:/opt/local/avr/include/util/delay_basic.h ****     \code
  47:/opt/local/avr/include/util/delay_basic.h ****     #include <util/delay_basic.h>
  48:/opt/local/avr/include/util/delay_basic.h ****     \endcode
  49:/opt/local/avr/include/util/delay_basic.h **** 
  50:/opt/local/avr/include/util/delay_basic.h ****     The functions in this header file implement simple delay loops
  51:/opt/local/avr/include/util/delay_basic.h ****     that perform a busy-waiting.  They are typically used to
  52:/opt/local/avr/include/util/delay_basic.h ****     facilitate short delays in the program execution.  They are
  53:/opt/local/avr/include/util/delay_basic.h ****     implemented as count-down loops with a well-known CPU cycle
  54:/opt/local/avr/include/util/delay_basic.h ****     count per loop iteration.  As such, no other processing can
  55:/opt/local/avr/include/util/delay_basic.h ****     occur simultaneously.  It should be kept in mind that the
  56:/opt/local/avr/include/util/delay_basic.h ****     functions described here do not disable interrupts.
  57:/opt/local/avr/include/util/delay_basic.h **** 
  58:/opt/local/avr/include/util/delay_basic.h ****     In general, for long delays, the use of hardware timers is
  59:/opt/local/avr/include/util/delay_basic.h ****     much preferrable, as they free the CPU, and allow for
  60:/opt/local/avr/include/util/delay_basic.h ****     concurrent processing of other events while the timer is
  61:/opt/local/avr/include/util/delay_basic.h ****     running.  However, in particular for very short delays, the
  62:/opt/local/avr/include/util/delay_basic.h ****     overhead of setting up a hardware timer is too much compared
  63:/opt/local/avr/include/util/delay_basic.h ****     to the overall delay time.
  64:/opt/local/avr/include/util/delay_basic.h **** 
  65:/opt/local/avr/include/util/delay_basic.h ****     Two inline functions are provided for the actual delay algorithms.
  66:/opt/local/avr/include/util/delay_basic.h **** 
  67:/opt/local/avr/include/util/delay_basic.h **** */
  68:/opt/local/avr/include/util/delay_basic.h **** 
  69:/opt/local/avr/include/util/delay_basic.h **** /** \ingroup util_delay_basic
  70:/opt/local/avr/include/util/delay_basic.h **** 
  71:/opt/local/avr/include/util/delay_basic.h ****     Delay loop using an 8-bit counter \c __count, so up to 256
  72:/opt/local/avr/include/util/delay_basic.h ****     iterations are possible.  (The value 256 would have to be passed
  73:/opt/local/avr/include/util/delay_basic.h ****     as 0.)  The loop executes three CPU cycles per iteration, not
  74:/opt/local/avr/include/util/delay_basic.h ****     including the overhead the compiler needs to setup the counter
  75:/opt/local/avr/include/util/delay_basic.h ****     register.
  76:/opt/local/avr/include/util/delay_basic.h **** 
  77:/opt/local/avr/include/util/delay_basic.h ****     Thus, at a CPU speed of 1 MHz, delays of up to 768 microseconds
  78:/opt/local/avr/include/util/delay_basic.h ****     can be achieved.
  79:/opt/local/avr/include/util/delay_basic.h **** */
  80:/opt/local/avr/include/util/delay_basic.h **** void
  81:/opt/local/avr/include/util/delay_basic.h **** _delay_loop_1(uint8_t __count)
  82:/opt/local/avr/include/util/delay_basic.h **** {
  83:/opt/local/avr/include/util/delay_basic.h **** 	__asm__ volatile (
  84:/opt/local/avr/include/util/delay_basic.h **** 		"1: dec %0" "\n\t"
  85:/opt/local/avr/include/util/delay_basic.h **** 		"brne 1b"
  86:/opt/local/avr/include/util/delay_basic.h **** 		: "=r" (__count)
  87:/opt/local/avr/include/util/delay_basic.h **** 		: "0" (__count)
  88:/opt/local/avr/include/util/delay_basic.h **** 	);
  89:/opt/local/avr/include/util/delay_basic.h **** }
  90:/opt/local/avr/include/util/delay_basic.h **** 
  91:/opt/local/avr/include/util/delay_basic.h **** /** \ingroup util_delay_basic
  92:/opt/local/avr/include/util/delay_basic.h **** 
  93:/opt/local/avr/include/util/delay_basic.h ****     Delay loop using a 16-bit counter \c __count, so up to 65536
  94:/opt/local/avr/include/util/delay_basic.h ****     iterations are possible.  (The value 65536 would have to be
  95:/opt/local/avr/include/util/delay_basic.h ****     passed as 0.)  The loop executes four CPU cycles per iteration,
  96:/opt/local/avr/include/util/delay_basic.h ****     not including the overhead the compiler requires to setup the
  97:/opt/local/avr/include/util/delay_basic.h ****     counter register pair.
  98:/opt/local/avr/include/util/delay_basic.h **** 
  99:/opt/local/avr/include/util/delay_basic.h ****     Thus, at a CPU speed of 1 MHz, delays of up to about 262.1
 100:/opt/local/avr/include/util/delay_basic.h ****     milliseconds can be achieved.
 101:/opt/local/avr/include/util/delay_basic.h ****  */
 102:/opt/local/avr/include/util/delay_basic.h **** void
 103:/opt/local/avr/include/util/delay_basic.h **** _delay_loop_2(uint16_t __count)
 407               		.loc 2 103 1 view .LVU105
 408               	.LBB145:
 104:/opt/local/avr/include/util/delay_basic.h **** {
 105:/opt/local/avr/include/util/delay_basic.h **** #if defined (__AVR_TINY__)
 106:/opt/local/avr/include/util/delay_basic.h **** 	__asm__ volatile (
 107:/opt/local/avr/include/util/delay_basic.h **** 		"1: subi %A0,1" "\n\t"
 108:/opt/local/avr/include/util/delay_basic.h **** 		"   sbci %B0,0" "\n\t"
 109:/opt/local/avr/include/util/delay_basic.h **** 		"brne 1b"
 110:/opt/local/avr/include/util/delay_basic.h **** 		: "+d" (__count)
 111:/opt/local/avr/include/util/delay_basic.h **** 	);
 112:/opt/local/avr/include/util/delay_basic.h **** #else
 113:/opt/local/avr/include/util/delay_basic.h **** 	__asm__ volatile (
 409               		.loc 2 113 2 view .LVU106
 410               	.LBE145:
 411               	.LBE144:
 412               		.loc 1 295 7 is_stmt 0 view .LVU107
 413 0138 E091 0000 		lds r30,sck_delay_value
 414 013c F091 0000 		lds r31,sck_delay_value+1
 415 0140 F695      		lsr r31
 416 0142 E795      		ror r30
 417               	.LVL12:
 418               	.LBB147:
 419               	.LBB146:
 420               		.loc 2 113 2 view .LVU108
 421               	/* #APP */
 422               	 ;  113 "/opt/local/avr/include/util/delay_basic.h" 1
 423 0144 3197      		1: sbiw r30,1
 424 0146 01F4      		brne 1b
 425               	 ;  0 "" 2
 426               	.LVL13:
 427               		.loc 2 113 2 view .LVU109
 428               	/* #NOAPP */
 429               	.LBE146:
 430               	.LBE147:
 296:main.c        **** 
 297:main.c        ****       //set clock high
 298:main.c        ****       PORTB   |=  (1 << SCK);
 431               		.loc 1 298 7 is_stmt 1 view .LVU110
 432               		.loc 1 298 15 is_stmt 0 view .LVU111
 433 0148 C79A      		sbi 0x18,7
 299:main.c        **** 
 300:main.c        ****       //wait another 1/4 period
 301:main.c        ****       _delay_loop_2(sck_delay_value>>1);
 434               		.loc 1 301 7 is_stmt 1 view .LVU112
 435 014a E091 0000 		lds r30,sck_delay_value
 436 014e F091 0000 		lds r31,sck_delay_value+1
 437 0152 F695      		lsr r31
 438 0154 E795      		ror r30
 439               	.LVL14:
 440               	.LBB148:
 441               	.LBI148:
 103:/opt/local/avr/include/util/delay_basic.h **** {
 442               		.loc 2 103 1 view .LVU113
 443               	.LBB149:
 444               		.loc 2 113 2 view .LVU114
 445 0156 DF01      		movw r26,r30
 446               	/* #APP */
 447               	 ;  113 "/opt/local/avr/include/util/delay_basic.h" 1
 448 0158 1197      		1: sbiw r26,1
 449 015a 01F4      		brne 1b
 450               	 ;  0 "" 2
 451               	.LVL15:
 452               		.loc 2 113 2 is_stmt 0 view .LVU115
 453               	/* #NOAPP */
 454               	.LBE149:
 455               	.LBE148:
 302:main.c        **** 
 303:main.c        ****       //read in bit
 304:main.c        ****       if( PINB & (1<<MISO)) {
 456               		.loc 1 304 7 is_stmt 1 view .LVU116
 457               		.loc 1 304 9 is_stmt 0 view .LVU117
 458 015c B699      		sbic 0x16,6
 305:main.c        ****         din|=bitvalue;
 459               		.loc 1 305 9 is_stmt 1 view .LVU118
 460               		.loc 1 305 12 is_stmt 0 view .LVU119
 461 015e 892B      		or r24,r25
 462               	.LVL16:
 463               	.L26:
 306:main.c        ****       }
 307:main.c        **** 
 308:main.c        ****       //wait another 1/4 period
 309:main.c        ****       _delay_loop_2(sck_delay_value>>1);
 464               		.loc 1 309 7 is_stmt 1 view .LVU120
 465               	.LBB150:
 466               	.LBI150:
 103:/opt/local/avr/include/util/delay_basic.h **** {
 467               		.loc 2 103 1 view .LVU121
 468               	.LBB151:
 469               		.loc 2 113 2 view .LVU122
 470               	/* #APP */
 471               	 ;  113 "/opt/local/avr/include/util/delay_basic.h" 1
 472 0160 3197      		1: sbiw r30,1
 473 0162 01F4      		brne 1b
 474               	 ;  0 "" 2
 475               	.LVL17:
 476               		.loc 2 113 2 is_stmt 0 view .LVU123
 477               	/* #NOAPP */
 478               	.LBE151:
 479               	.LBE150:
 310:main.c        **** 
 311:main.c        ****       //clear clock
 312:main.c        ****       PORTB   &=  ~(1 << SCK);
 480               		.loc 1 312 7 is_stmt 1 view .LVU124
 481               		.loc 1 312 15 is_stmt 0 view .LVU125
 482 0164 C798      		cbi 0x18,7
 313:main.c        **** 
 314:main.c        ****       //wait another 1/4 period
 315:main.c        ****       _delay_loop_2(sck_delay_value>>1);
 483               		.loc 1 315 7 is_stmt 1 view .LVU126
 484               	.LVL18:
 485               	.LBB152:
 486               	.LBI152:
 103:/opt/local/avr/include/util/delay_basic.h **** {
 487               		.loc 2 103 1 view .LVU127
 488               	.LBB153:
 489               		.loc 2 113 2 view .LVU128
 490               	.LBE153:
 491               	.LBE152:
 492               		.loc 1 315 7 is_stmt 0 view .LVU129
 493 0166 E091 0000 		lds r30,sck_delay_value
 494 016a F091 0000 		lds r31,sck_delay_value+1
 495 016e F695      		lsr r31
 496 0170 E795      		ror r30
 497               	.LVL19:
 498               	.LBB155:
 499               	.LBB154:
 500               		.loc 2 113 2 view .LVU130
 501               	/* #APP */
 502               	 ;  113 "/opt/local/avr/include/util/delay_basic.h" 1
 503 0172 3197      		1: sbiw r30,1
 504 0174 01F4      		brne 1b
 505               	 ;  0 "" 2
 506               	.LVL20:
 507               		.loc 2 113 2 view .LVU131
 508               	/* #NOAPP */
 509               	.LBE154:
 510               	.LBE155:
 286:main.c        ****     {
 511               		.loc 1 286 40 is_stmt 1 discriminator 2 view .LVU132
 512 0176 9695      		lsr r25
 513               	.LVL21:
 286:main.c        ****     {
 514               		.loc 1 286 23 discriminator 1 view .LVU133
 515 0178 2150      		subi r18, 1
 516 017a 3040      		sbci r19, 0
 517 017c 01F4      		brne .L21
 518               	/* epilogue start */
 519               	.LBE143:
 520               	.LBE142:
 316:main.c        **** 
 317:main.c        ****     }
 318:main.c        ****     return din;
 319:main.c        ****   }
 320:main.c        **** }
 521               		.loc 1 320 1 is_stmt 0 view .LVU134
 522 017e 0895      		ret
 523               	.L24:
 524               	.LBB157:
 525               	.LBB156:
 292:main.c        **** 
 526               		.loc 1 292 9 is_stmt 1 view .LVU135
 292:main.c        **** 
 527               		.loc 1 292 17 is_stmt 0 view .LVU136
 528 0180 C598      		cbi 0x18,5
 529 0182 00C0      		rjmp .L25
 530               	.LBE156:
 531               	.LBE157:
 532               		.cfi_endproc
 533               	.LFE75:
 535               	.global	spi_pulseclockonce
 537               	spi_pulseclockonce:
 538               	.LFB76:
 321:main.c        **** 
 322:main.c        **** /**According to the syncronisation protocol recommended by atmel, the SCLK must
 323:main.c        ****  * be pulsed once every retry to try to get in sync. This can't be done in
 324:main.c        ****  * hardware spi mode, so switch to software temporarily
 325:main.c        ****  */
 326:main.c        **** 
 327:main.c        **** void spi_pulseclockonce(void) {
 539               		.loc 1 327 31 is_stmt 1 view -0
 540               		.cfi_startproc
 541               	/* prologue: function */
 542               	/* frame size = 0 */
 543               	/* stack size = 0 */
 544               	.L__stack_usage = 0
 328:main.c        ****   unsigned char spcr_save,spsr_save;
 545               		.loc 1 328 3 view .LVU138
 329:main.c        ****   spcr_save=SPCR;
 546               		.loc 1 329 3 view .LVU139
 547               		.loc 1 329 12 is_stmt 0 view .LVU140
 548 0184 3DB1      		in r19,0xd
 549               	.LVL22:
 330:main.c        ****   spsr_save=SPSR;
 550               		.loc 1 330 3 is_stmt 1 view .LVU141
 551               		.loc 1 330 12 is_stmt 0 view .LVU142
 552 0186 2EB1      		in r18,0xe
 553               	.LVL23:
 331:main.c        ****   SPCR = 0;
 554               		.loc 1 331 3 is_stmt 1 view .LVU143
 555               		.loc 1 331 8 is_stmt 0 view .LVU144
 556 0188 1DB8      		out 0xd,__zero_reg__
 332:main.c        ****   SPSR = 0;
 557               		.loc 1 332 3 is_stmt 1 view .LVU145
 558               		.loc 1 332 8 is_stmt 0 view .LVU146
 559 018a 1EB8      		out 0xe,__zero_reg__
 333:main.c        ****   //pulse
 334:main.c        ****   _delay_loop_2(sck_delay_value);
 560               		.loc 1 334 3 is_stmt 1 view .LVU147
 561               	.LVL24:
 562               	.LBB158:
 563               	.LBI158:
 103:/opt/local/avr/include/util/delay_basic.h **** {
 564               		.loc 2 103 1 view .LVU148
 565               	.LBB159:
 566               		.loc 2 113 2 view .LVU149
 567 018c 8091 0000 		lds r24,sck_delay_value
 568 0190 9091 0000 		lds r25,sck_delay_value+1
 569               	/* #APP */
 570               	 ;  113 "/opt/local/avr/include/util/delay_basic.h" 1
 571 0194 0197      		1: sbiw r24,1
 572 0196 01F4      		brne 1b
 573               	 ;  0 "" 2
 574               	.LVL25:
 575               		.loc 2 113 2 is_stmt 0 view .LVU150
 576               	/* #NOAPP */
 577               	.LBE159:
 578               	.LBE158:
 335:main.c        ****   PORTB   |=  (1 << SCK);
 579               		.loc 1 335 3 is_stmt 1 view .LVU151
 580               		.loc 1 335 11 is_stmt 0 view .LVU152
 581 0198 C79A      		sbi 0x18,7
 336:main.c        ****   _delay_loop_2(sck_delay_value);
 582               		.loc 1 336 3 is_stmt 1 view .LVU153
 583               	.LVL26:
 584               	.LBB160:
 585               	.LBI160:
 103:/opt/local/avr/include/util/delay_basic.h **** {
 586               		.loc 2 103 1 view .LVU154
 587               	.LBB161:
 588               		.loc 2 113 2 view .LVU155
 589 019a 8091 0000 		lds r24,sck_delay_value
 590 019e 9091 0000 		lds r25,sck_delay_value+1
 591               	/* #APP */
 592               	 ;  113 "/opt/local/avr/include/util/delay_basic.h" 1
 593 01a2 0197      		1: sbiw r24,1
 594 01a4 01F4      		brne 1b
 595               	 ;  0 "" 2
 596               	.LVL27:
 597               		.loc 2 113 2 is_stmt 0 view .LVU156
 598               	/* #NOAPP */
 599               	.LBE161:
 600               	.LBE160:
 337:main.c        ****   PORTB   &=  ~(1 << SCK);
 601               		.loc 1 337 3 is_stmt 1 view .LVU157
 602               		.loc 1 337 11 is_stmt 0 view .LVU158
 603 01a6 C798      		cbi 0x18,7
 338:main.c        **** 
 339:main.c        ****   SPCR=spcr_save;
 604               		.loc 1 339 3 is_stmt 1 view .LVU159
 605               		.loc 1 339 7 is_stmt 0 view .LVU160
 606 01a8 3DB9      		out 0xd,r19
 340:main.c        ****   SPSR=spsr_save;
 607               		.loc 1 340 3 is_stmt 1 view .LVU161
 608               		.loc 1 340 7 is_stmt 0 view .LVU162
 609 01aa 2EB9      		out 0xe,r18
 610               	/* epilogue start */
 341:main.c        **** }
 611               		.loc 1 341 1 view .LVU163
 612 01ac 0895      		ret
 613               		.cfi_endproc
 614               	.LFE76:
 616               	.global	spi_cmd
 618               	spi_cmd:
 619               	.LVL28:
 620               	.LFB77:
 342:main.c        **** 
 343:main.c        **** uint8_t spi_cmd(uint8_t cmd, uint16_t address, uint8_t data)
 344:main.c        **** {
 621               		.loc 1 344 1 is_stmt 1 view -0
 622               		.cfi_startproc
 623               		.loc 1 344 1 is_stmt 0 view .LVU165
 624 01ae 1F93      		push r17
 625               		.cfi_def_cfa_offset 3
 626               		.cfi_offset 17, -2
 627 01b0 CF93      		push r28
 628               		.cfi_def_cfa_offset 4
 629               		.cfi_offset 28, -3
 630 01b2 DF93      		push r29
 631               		.cfi_def_cfa_offset 5
 632               		.cfi_offset 29, -4
 633               	/* prologue: function */
 634               	/* frame size = 0 */
 635               	/* stack size = 3 */
 636               	.L__stack_usage = 3
 637 01b4 D62F      		mov r29,r22
 638 01b6 172F      		mov r17,r23
 639 01b8 C42F      		mov r28,r20
 345:main.c        ****     spi_inout(cmd);
 640               		.loc 1 345 5 is_stmt 1 view .LVU166
 641 01ba 0E94 0000 		call spi_inout
 642               	.LVL29:
 346:main.c        ****     spi_inout(address>>8);
 643               		.loc 1 346 5 view .LVU167
 644 01be 812F      		mov r24,r17
 645 01c0 0E94 0000 		call spi_inout
 646               	.LVL30:
 347:main.c        ****     spi_inout(address);
 647               		.loc 1 347 5 view .LVU168
 648 01c4 8D2F      		mov r24,r29
 649 01c6 0E94 0000 		call spi_inout
 650               	.LVL31:
 348:main.c        ****     return spi_inout(data);
 651               		.loc 1 348 5 view .LVU169
 652               		.loc 1 348 12 is_stmt 0 view .LVU170
 653 01ca 8C2F      		mov r24,r28
 654               	/* epilogue start */
 349:main.c        **** }
 655               		.loc 1 349 1 view .LVU171
 656 01cc DF91      		pop r29
 657 01ce CF91      		pop r28
 658               	.LVL32:
 659               		.loc 1 349 1 view .LVU172
 660 01d0 1F91      		pop r17
 348:main.c        ****     return spi_inout(data);
 661               		.loc 1 348 12 view .LVU173
 662 01d2 0C94 0000 		jmp spi_inout
 663               	.LVL33:
 348:main.c        ****     return spi_inout(data);
 664               		.loc 1 348 12 view .LVU174
 665               		.cfi_endproc
 666               	.LFE77:
 668               	.global	spi_out
 670               	spi_out:
 671               	.LVL34:
 672               	.LFB78:
 350:main.c        **** 
 351:main.c        **** void spi_out(char data) {
 673               		.loc 1 351 25 is_stmt 1 view -0
 674               		.cfi_startproc
 675               	/* prologue: function */
 676               	/* frame size = 0 */
 677               	/* stack size = 0 */
 678               	.L__stack_usage = 0
 352:main.c        ****   spi_inout(data);
 679               		.loc 1 352 3 view .LVU176
 680 01d6 0C94 0000 		jmp spi_inout
 681               	.LVL35:
 682               		.loc 1 352 3 is_stmt 0 view .LVU177
 683               		.cfi_endproc
 684               	.LFE78:
 686               	.global	spi_in
 688               	spi_in:
 689               	.LFB79:
 353:main.c        **** }
 354:main.c        **** char spi_in(void) {
 690               		.loc 1 354 19 is_stmt 1 view -0
 691               		.cfi_startproc
 692               	/* prologue: function */
 693               	/* frame size = 0 */
 694               	/* stack size = 0 */
 695               	.L__stack_usage = 0
 355:main.c        ****   return spi_inout(0);;
 696               		.loc 1 355 3 view .LVU179
 697               		.loc 1 355 10 is_stmt 0 view .LVU180
 698 01da 80E0      		ldi r24,0
 699 01dc 0C94 0000 		jmp spi_inout
 700               	.LVL36:
 701               		.cfi_endproc
 702               	.LFE79:
 704               	.global	USBToglAndSend
 706               	USBToglAndSend:
 707               	.LFB81:
 356:main.c        **** }
 357:main.c        **** 
 358:main.c        **** void program_fsm(uint8_t* buffer, uint8_t eeprom)
 359:main.c        **** {
 360:main.c        ****   uint8_t databytes = 64;
 361:main.c        ****   static uint8_t *ptr;
 362:main.c        **** 
 363:main.c        ****   if (usbprog.cmdpackage) {
 364:main.c        ****     // skip the header bytes
 365:main.c        ****     buffer += 10;
 366:main.c        ****     databytes -= 10;
 367:main.c        ****     
 368:main.c        ****     if (eeprom) {
 369:main.c        ****       answer[0] = CMD_PROGRAM_EEPROM_ISP;
 370:main.c        ****       ptr = (uint8_t*)answer +_TMP_OFFSET;  // reserve some space at beginning of the buffer to han
 371:main.c        ****                                             // answer packets during programming if necessary
 372:main.c        ****       if (pgmmode.numbytes > sizeof(answer) - _TMP_OFFSET) {
 373:main.c        ****         answer[1] = STATUS_CMD_FAILED;      // we are not able to program more than this
 374:main.c        ****                                             // in one cycle, because we haven't enough RAM
 375:main.c        ****                                             // AVR-Studio sends max. 128 Bytes in one USB-Packet
 376:main.c        ****                                             // so this should never happen...
 377:main.c        ****       } else {
 378:main.c        ****         answer[1] = STATUS_CMD_OK;
 379:main.c        ****       }
 380:main.c        ****     }
 381:main.c        ****   }
 382:main.c        ****   #if DEBUG_ON
 383:main.c        ****   UARTWrite("pgm num ");
 384:main.c        ****   SendHex(pgmmode.numbytes);
 385:main.c        ****   UARTWrite("\r\n ");
 386:main.c        ****   #endif
 387:main.c        ****   
 388:main.c        ****   // get an additional 0 byte cmd package if the size of the last package = 64 
 389:main.c        ****   if (pgmmode.numbytes==64)
 390:main.c        ****     pgmmode.numbytes++;
 391:main.c        **** 
 392:main.c        ****   if (pgmmode.numbytes>databytes) {
 393:main.c        ****     pgmmode.numbytes-=databytes;
 394:main.c        ****     usbprog.longpackage=1;        //Expect more data
 395:main.c        ****   } else {
 396:main.c        ****     databytes=pgmmode.numbytes;   //The number of valid bytes in this packet
 397:main.c        ****     pgmmode.numbytes=0;           //No more data left
 398:main.c        ****     usbprog.longpackage=0;        //Expect no more data
 399:main.c        ****   }
 400:main.c        **** 
 401:main.c        ****   if (eeprom && answer[1] == STATUS_CMD_OK) {
 402:main.c        ****     // copy the datas to our temp buffer
 403:main.c        ****     memcpy(ptr, buffer, databytes);
 404:main.c        ****     ptr += databytes;
 405:main.c        ****   }
 406:main.c        ****   if (!eeprom || pgmmode.numbytes == 0)
 407:main.c        ****   {
 408:main.c        ****     uint8_t poll;
 409:main.c        ****     uint8_t i;
 410:main.c        ****     uint8_t loop;
 411:main.c        ****     uint8_t tmp;
 412:main.c        **** 
 413:main.c        ****     if (eeprom) {
 414:main.c        ****       if (answer[1] != STATUS_CMD_OK) {
 415:main.c        ****         // we got a buffer overflow, 
 416:main.c        ****         // we must eat up all bytes before we can return an error
 417:main.c        ****         pgmmode.status = STATUS_CMD_OK;
 418:main.c        ****         pgmmode.poll_address_valid = 0;
 419:main.c        ****         CommandAnswer(2);
 420:main.c        ****         return;
 421:main.c        ****       }
 422:main.c        ****       // set the pointer to the saved datas  
 423:main.c        ****       buffer = (uint8_t*)answer + _TMP_OFFSET;
 424:main.c        ****       databytes = ptr - buffer; 
 425:main.c        ****       poll = pgmmode.poll2;
 426:main.c        ****     } else {
 427:main.c        ****       poll = pgmmode.poll1;
 428:main.c        ****     }
 429:main.c        **** 
 430:main.c        ****     for (i = 0; i < databytes; i++, buffer++) {
 431:main.c        ****       if (pgmmode.large_flash && (pgmmode.address >> 16) != pgmmode.ext_address){
 432:main.c        ****         // set the extended page address
 433:main.c        ****         pgmmode.ext_address = pgmmode.address >> 16;
 434:main.c        ****         spi_cmd(0x4d, pgmmode.ext_address, 0x00);
 435:main.c        ****       }
 436:main.c        ****       if (!eeprom) {
 437:main.c        ****         if (i&1){
 438:main.c        ****           pgmmode.cmd1 |= 8;
 439:main.c        ****         }else{
 440:main.c        ****           pgmmode.cmd1 &= ~8;
 441:main.c        ****         }
 442:main.c        ****       }
 443:main.c        ****       spi_cmd(pgmmode.cmd1, pgmmode.address, *buffer);
 444:main.c        ****       if (!(pgmmode.mode & 1)) {
 445:main.c        ****         // byte/word mode
 446:main.c        ****         loop = 200; // 200*250sec = 50msec
 447:main.c        ****         if (pgmmode.mode & 8) {
 448:main.c        ****           // RDY/BSY polling
 449:main.c        ****           do {
 450:main.c        ****             _delay_us(250);
 451:main.c        ****             tmp = spi_cmd(0xf0, 0, 0);
 452:main.c        ****           }
 453:main.c        ****           while ((tmp & 1) && --loop);
 454:main.c        **** 
 455:main.c        ****           if (tmp & 1) {
 456:main.c        ****             pgmmode.status = STATUS_RDY_BSY_TOUT;
 457:main.c        ****           }
 458:main.c        ****         }else if ((pgmmode.mode & 4) && *buffer != poll) {
 459:main.c        ****           // value polling
 460:main.c        ****           if (!eeprom) {
 461:main.c        ****             if (i&1){
 462:main.c        ****               pgmmode.cmd3 |= 8;
 463:main.c        ****             }else{
 464:main.c        ****               pgmmode.cmd3 &= ~8;
 465:main.c        ****             }
 466:main.c        ****           } 
 467:main.c        ****           do{
 468:main.c        ****             _delay_us(250);
 469:main.c        ****             tmp = spi_cmd(pgmmode.cmd3, pgmmode.address, 0);
 470:main.c        ****           }while(tmp != *buffer && --loop);
 471:main.c        **** 
 472:main.c        ****           if (tmp != *buffer) {
 473:main.c        ****             pgmmode.status = STATUS_CMD_TOUT;
 474:main.c        ****           }
 475:main.c        ****         } else{
 476:main.c        ****           wait_ms(pgmmode.delay);
 477:main.c        ****         }
 478:main.c        ****       } else { 
 479:main.c        ****         if (*buffer != poll && !pgmmode.poll_address_valid) {
 480:main.c        ****           pgmmode.poll_address = pgmmode.address;
 481:main.c        ****           pgmmode.poll_address_odd = i&1; 
 482:main.c        ****           pgmmode.poll_address_valid = 1;
 483:main.c        ****         }
 484:main.c        ****       }
 485:main.c        ****       if (eeprom || (i&1)) {
 486:main.c        ****         pgmmode.address++;
 487:main.c        ****       }
 488:main.c        ****     }
 489:main.c        **** 
 490:main.c        ****     if (pgmmode.numbytes==0) {
 491:main.c        ****       if ((pgmmode.mode & 0x81) == 0x81) {
 492:main.c        ****         // page mode
 493:main.c        ****         loop = 200; // 200*250usec = 50msec
 494:main.c        ****         spi_cmd(pgmmode.cmd2, pgmmode.pageaddress, 0);
 495:main.c        **** 
 496:main.c        ****         if (pgmmode.mode & 0x40){
 497:main.c        ****           // RDY/BSY polling
 498:main.c        ****           do {
 499:main.c        ****             _delay_us(250);
 500:main.c        ****             tmp = spi_cmd(0xf0, 0, 0);
 501:main.c        ****           }
 502:main.c        ****           while ((tmp & 1) && --loop);
 503:main.c        **** 
 504:main.c        ****           if (tmp & 1) {
 505:main.c        ****             pgmmode.status = STATUS_RDY_BSY_TOUT;
 506:main.c        ****           }
 507:main.c        ****         }else if ((pgmmode.mode & 0x20) && pgmmode.poll_address_valid) {
 508:main.c        ****           // value polling
 509:main.c        ****           if (!eeprom) {
 510:main.c        ****             if (pgmmode.poll_address_odd) {
 511:main.c        ****               pgmmode.cmd3 |= 8;
 512:main.c        ****             }else{
 513:main.c        ****               pgmmode.cmd3 &= ~8;
 514:main.c        ****             }  
 515:main.c        ****           }
 516:main.c        ****           do{
 517:main.c        ****             _delay_us(250);
 518:main.c        ****             tmp = spi_cmd(pgmmode.cmd3, pgmmode.poll_address, 0);
 519:main.c        ****           }while(tmp == poll && --loop);
 520:main.c        **** 
 521:main.c        ****           if (tmp == poll) {
 522:main.c        ****             pgmmode.status = STATUS_CMD_TOUT;
 523:main.c        ****           }
 524:main.c        ****         }else {
 525:main.c        ****           // timed delay
 526:main.c        ****           wait_ms(pgmmode.delay);
 527:main.c        ****         }
 528:main.c        ****       }
 529:main.c        ****       answer[0] = eeprom ? CMD_PROGRAM_EEPROM_ISP : CMD_PROGRAM_FLASH_ISP;
 530:main.c        ****       answer[1] = pgmmode.status;
 531:main.c        ****       pgmmode.status = STATUS_CMD_OK;
 532:main.c        ****       pgmmode.poll_address_valid = 0;
 533:main.c        ****       CommandAnswer(2);
 534:main.c        ****     }
 535:main.c        ****   }
 536:main.c        **** }
 537:main.c        **** 
 538:main.c        **** void USBToglAndSend(void)
 539:main.c        **** {
 708               		.loc 1 539 1 is_stmt 1 view -0
 709               		.cfi_startproc
 710 01e0 CF93      		push r28
 711               		.cfi_def_cfa_offset 3
 712               		.cfi_offset 28, -2
 713               	/* prologue: function */
 714               	/* frame size = 0 */
 715               	/* stack size = 1 */
 716               	.L__stack_usage = 1
 540:main.c        ****   uint8_t sreg = SREG;
 717               		.loc 1 540 3 view .LVU182
 718               		.loc 1 540 11 is_stmt 0 view .LVU183
 719 01e2 CFB7      		in r28,__SREG__
 720               	.LVL37:
 541:main.c        ****   cli();
 721               		.loc 1 541 3 is_stmt 1 view .LVU184
 722               	/* #APP */
 723               	 ;  541 "main.c" 1
 724 01e4 F894      		cli
 725               	 ;  0 "" 2
 542:main.c        ****   if(usbprog.datatogl == 1) {
 726               		.loc 1 542 3 view .LVU185
 727               		.loc 1 542 13 is_stmt 0 view .LVU186
 728               	/* #NOAPP */
 729 01e6 8091 0000 		lds r24,usbprog+5
 730 01ea 9091 0000 		lds r25,usbprog+5+1
 731               		.loc 1 542 5 view .LVU187
 732 01ee 0197      		sbiw r24,1
 733 01f0 01F4      		brne .L38
 543:main.c        ****     USBNWrite(TXC1, TX_LAST+TX_EN+TX_TOGL);
 734               		.loc 1 543 5 is_stmt 1 view .LVU188
 735 01f2 67E0      		ldi r22,lo8(7)
 736 01f4 8BE2      		ldi r24,lo8(43)
 737 01f6 0E94 0000 		call USBNWrite
 738               	.LVL38:
 544:main.c        ****     usbprog.datatogl = 0;
 739               		.loc 1 544 5 view .LVU189
 740               		.loc 1 544 22 is_stmt 0 view .LVU190
 741 01fa 1092 0000 		sts usbprog+5+1,__zero_reg__
 742 01fe 1092 0000 		sts usbprog+5,__zero_reg__
 743               	.L39:
 545:main.c        ****   } else {
 546:main.c        ****     USBNWrite(TXC1, TX_LAST+TX_EN);
 547:main.c        ****     usbprog.datatogl = 1;
 548:main.c        ****   }
 549:main.c        ****   SREG = sreg;
 744               		.loc 1 549 3 is_stmt 1 view .LVU191
 745               		.loc 1 549 8 is_stmt 0 view .LVU192
 746 0202 CFBF      		out __SREG__,r28
 747               	/* epilogue start */
 550:main.c        **** }
 748               		.loc 1 550 1 view .LVU193
 749 0204 CF91      		pop r28
 750               	.LVL39:
 751               		.loc 1 550 1 view .LVU194
 752 0206 0895      		ret
 753               	.LVL40:
 754               	.L38:
 546:main.c        ****     usbprog.datatogl = 1;
 755               		.loc 1 546 5 is_stmt 1 view .LVU195
 756 0208 63E0      		ldi r22,lo8(3)
 757 020a 8BE2      		ldi r24,lo8(43)
 758 020c 0E94 0000 		call USBNWrite
 759               	.LVL41:
 547:main.c        ****   }
 760               		.loc 1 547 5 view .LVU196
 547:main.c        ****   }
 761               		.loc 1 547 22 is_stmt 0 view .LVU197
 762 0210 81E0      		ldi r24,lo8(1)
 763 0212 90E0      		ldi r25,0
 764 0214 9093 0000 		sts usbprog+5+1,r25
 765 0218 8093 0000 		sts usbprog+5,r24
 766 021c 00C0      		rjmp .L39
 767               		.cfi_endproc
 768               	.LFE81:
 770               	.global	SendCompleteAnswer
 772               	SendCompleteAnswer:
 773               	.LFB82:
 551:main.c        **** 
 552:main.c        **** void SendCompleteAnswer(void)
 553:main.c        **** {
 774               		.loc 1 553 1 is_stmt 1 view -0
 775               		.cfi_startproc
 776 021e CF93      		push r28
 777               		.cfi_def_cfa_offset 3
 778               		.cfi_offset 28, -2
 779 0220 DF93      		push r29
 780               		.cfi_def_cfa_offset 4
 781               		.cfi_offset 29, -3
 782               	/* prologue: function */
 783               	/* frame size = 0 */
 784               	/* stack size = 2 */
 785               	.L__stack_usage = 2
 554:main.c        ****   if(pgmmode.numbytes == 0)
 786               		.loc 1 554 3 view .LVU199
 787               		.loc 1 554 5 is_stmt 0 view .LVU200
 788 0222 8091 0000 		lds r24,pgmmode
 789 0226 9091 0000 		lds r25,pgmmode+1
 790 022a 892B      		or r24,r25
 791 022c 01F4      		brne .+2
 792 022e 00C0      		rjmp .L40
 793               	.LBB164:
 794               	.LBI164:
 552:main.c        **** {
 795               		.loc 1 552 6 is_stmt 1 view .LVU201
 796               	.LBB165:
 555:main.c        ****     return;
 556:main.c        **** 
 557:main.c        ****   USBNWrite(TXC1, FLUSH);
 797               		.loc 1 557 3 view .LVU202
 798 0230 68E0      		ldi r22,lo8(8)
 799 0232 8BE2      		ldi r24,lo8(43)
 800 0234 0E94 0000 		call USBNWrite
 801               	.LVL42:
 558:main.c        **** 
 559:main.c        ****   int i;
 802               		.loc 1 559 3 view .LVU203
 560:main.c        ****   if(pgmmode.numbytes > 64){
 803               		.loc 1 560 3 view .LVU204
 804               		.loc 1 560 5 is_stmt 0 view .LVU205
 805 0238 8091 0000 		lds r24,pgmmode
 806 023c 9091 0000 		lds r25,pgmmode+1
 561:main.c        ****     for(i = 0; i < 64; i++)
 807               		.loc 1 561 11 view .LVU206
 808 0240 C0E0      		ldi r28,0
 809 0242 D0E0      		ldi r29,0
 560:main.c        ****   if(pgmmode.numbytes > 64){
 810               		.loc 1 560 5 view .LVU207
 811 0244 8134      		cpi r24,65
 812 0246 9105      		cpc r25,__zero_reg__
 813 0248 00F0      		brlo .L42
 814               	.L43:
 815               	.LVL43:
 562:main.c        ****       USBNWrite(TXD1, answer[usbprog.fragmentnumber * 64 + i]);
 816               		.loc 1 562 7 is_stmt 1 view .LVU208
 817               		.loc 1 562 37 is_stmt 0 view .LVU209
 818 024a E091 0000 		lds r30,usbprog+9
 819 024e F091 0000 		lds r31,usbprog+9+1
 820               		.loc 1 562 53 view .LVU210
 821 0252 96E0      		ldi r25,6
 822               		1:
 823 0254 EE0F      		lsl r30
 824 0256 FF1F      		rol r31
 825 0258 9A95      		dec r25
 826 025a 01F4      		brne 1b
 827               		.loc 1 562 58 view .LVU211
 828 025c EC0F      		add r30,r28
 829 025e FD1F      		adc r31,r29
 830               		.loc 1 562 29 view .LVU212
 831 0260 E050      		subi r30,lo8(-(answer))
 832 0262 F040      		sbci r31,hi8(-(answer))
 833 0264 6081      		ld r22,Z
 834               		.loc 1 562 7 view .LVU213
 835 0266 89E2      		ldi r24,lo8(41)
 836 0268 0E94 0000 		call USBNWrite
 837               	.LVL44:
 561:main.c        ****     for(i = 0; i < 64; i++)
 838               		.loc 1 561 25 is_stmt 1 discriminator 3 view .LVU214
 839 026c 2196      		adiw r28,1
 840               	.LVL45:
 561:main.c        ****     for(i = 0; i < 64; i++)
 841               		.loc 1 561 18 discriminator 1 view .LVU215
 842 026e C034      		cpi r28,64
 843 0270 D105      		cpc r29,__zero_reg__
 844 0272 01F4      		brne .L43
 563:main.c        **** 
 564:main.c        ****     usbprog.fragmentnumber++;
 845               		.loc 1 564 5 view .LVU216
 846               		.loc 1 564 12 is_stmt 0 view .LVU217
 847 0274 8091 0000 		lds r24,usbprog+9
 848 0278 9091 0000 		lds r25,usbprog+9+1
 849               		.loc 1 564 27 view .LVU218
 850 027c 0196      		adiw r24,1
 851 027e 9093 0000 		sts usbprog+9+1,r25
 852 0282 8093 0000 		sts usbprog+9,r24
 565:main.c        ****     pgmmode.numbytes = pgmmode.numbytes - 64;
 853               		.loc 1 565 5 is_stmt 1 view .LVU219
 854               		.loc 1 565 41 is_stmt 0 view .LVU220
 855 0286 8091 0000 		lds r24,pgmmode
 856 028a 9091 0000 		lds r25,pgmmode+1
 857 028e 8054      		subi r24,64
 858 0290 9109      		sbc r25,__zero_reg__
 859               		.loc 1 565 22 view .LVU221
 860 0292 9093 0000 		sts pgmmode+1,r25
 861 0296 8093 0000 		sts pgmmode,r24
 566:main.c        ****     USBToglAndSend();
 862               		.loc 1 566 5 is_stmt 1 view .LVU222
 863               	.L47:
 567:main.c        ****   }
 568:main.c        ****   else {
 569:main.c        ****     for(i = 0; i<pgmmode.numbytes; i++)
 570:main.c        ****       USBNWrite(TXD1, answer[usbprog.fragmentnumber * 64 + i]);
 571:main.c        **** 
 572:main.c        ****     usbprog.fragmentnumber = 0;
 573:main.c        ****     pgmmode.numbytes = 0;
 574:main.c        ****     USBToglAndSend();
 864               		.loc 1 574 5 view .LVU223
 865               	/* epilogue start */
 866               	.LBE165:
 867               	.LBE164:
 575:main.c        ****   }
 576:main.c        **** }
 868               		.loc 1 576 1 is_stmt 0 view .LVU224
 869 029a DF91      		pop r29
 870 029c CF91      		pop r28
 871               	.LVL46:
 872               	.LBB167:
 873               	.LBB166:
 574:main.c        ****   }
 874               		.loc 1 574 5 view .LVU225
 875 029e 0C94 0000 		jmp USBToglAndSend
 876               	.LVL47:
 877               	.L44:
 570:main.c        **** 
 878               		.loc 1 570 7 is_stmt 1 view .LVU226
 570:main.c        **** 
 879               		.loc 1 570 37 is_stmt 0 view .LVU227
 880 02a2 E091 0000 		lds r30,usbprog+9
 881 02a6 F091 0000 		lds r31,usbprog+9+1
 570:main.c        **** 
 882               		.loc 1 570 53 view .LVU228
 883 02aa 86E0      		ldi r24,6
 884               		1:
 885 02ac EE0F      		lsl r30
 886 02ae FF1F      		rol r31
 887 02b0 8A95      		dec r24
 888 02b2 01F4      		brne 1b
 570:main.c        **** 
 889               		.loc 1 570 58 view .LVU229
 890 02b4 EC0F      		add r30,r28
 891 02b6 FD1F      		adc r31,r29
 570:main.c        **** 
 892               		.loc 1 570 29 view .LVU230
 893 02b8 E050      		subi r30,lo8(-(answer))
 894 02ba F040      		sbci r31,hi8(-(answer))
 895 02bc 6081      		ld r22,Z
 570:main.c        **** 
 896               		.loc 1 570 7 view .LVU231
 897 02be 89E2      		ldi r24,lo8(41)
 898 02c0 0E94 0000 		call USBNWrite
 899               	.LVL48:
 569:main.c        ****       USBNWrite(TXD1, answer[usbprog.fragmentnumber * 64 + i]);
 900               		.loc 1 569 37 is_stmt 1 discriminator 3 view .LVU232
 901 02c4 2196      		adiw r28,1
 902               	.LVL49:
 903               	.L42:
 569:main.c        ****       USBNWrite(TXD1, answer[usbprog.fragmentnumber * 64 + i]);
 904               		.loc 1 569 17 discriminator 1 view .LVU233
 905 02c6 8091 0000 		lds r24,pgmmode
 906 02ca 9091 0000 		lds r25,pgmmode+1
 907 02ce C817      		cp r28,r24
 908 02d0 D907      		cpc r29,r25
 909 02d2 00F0      		brlo .L44
 572:main.c        ****     pgmmode.numbytes = 0;
 910               		.loc 1 572 5 view .LVU234
 572:main.c        ****     pgmmode.numbytes = 0;
 911               		.loc 1 572 28 is_stmt 0 view .LVU235
 912 02d4 1092 0000 		sts usbprog+9+1,__zero_reg__
 913 02d8 1092 0000 		sts usbprog+9,__zero_reg__
 573:main.c        ****     USBToglAndSend();
 914               		.loc 1 573 5 is_stmt 1 view .LVU236
 573:main.c        ****     USBToglAndSend();
 915               		.loc 1 573 22 is_stmt 0 view .LVU237
 916 02dc 1092 0000 		sts pgmmode+1,__zero_reg__
 917 02e0 1092 0000 		sts pgmmode,__zero_reg__
 918 02e4 00C0      		rjmp .L47
 919               	.LVL50:
 920               	.L40:
 921               	/* epilogue start */
 573:main.c        ****     USBToglAndSend();
 922               		.loc 1 573 22 view .LVU238
 923               	.LBE166:
 924               	.LBE167:
 925               		.loc 1 576 1 view .LVU239
 926 02e6 DF91      		pop r29
 927 02e8 CF91      		pop r28
 928 02ea 0895      		ret
 929               		.cfi_endproc
 930               	.LFE82:
 932               	.global	CommandAnswer
 934               	CommandAnswer:
 935               	.LVL51:
 936               	.LFB83:
 577:main.c        **** 
 578:main.c        **** #if 0
 579:main.c        **** void NackEvent(unsigned int number)
 580:main.c        **** {
 581:main.c        ****   if(number & 0x20) 
 582:main.c        ****     USBNWrite(TXC1, FLUSH);
 583:main.c        **** 
 584:main.c        ****   if(number & 0x02) 
 585:main.c        ****     USBNWrite(RXC1, FLUSH+RX_EN);
 586:main.c        ****     USBNWrite(TXC1, FLUSH);
 587:main.c        ****     if(usbprog.datatogl == 1) {
 588:main.c        ****       USBNWrite(TXC1, TX_LAST+TX_EN+TX_TOGL);
 589:main.c        ****       usbprog.datatogl=0;
 590:main.c        ****     } else {
 591:main.c        ****       USBNWrite(TXC1, TX_LAST+TX_EN);
 592:main.c        ****       usbprog.datatogl=1;
 593:main.c        ****     }
 594:main.c        ****   }
 595:main.c        **** }
 596:main.c        **** #endif
 597:main.c        **** 
 598:main.c        **** 
 599:main.c        **** void CommandAnswer(uint8_t length)
 600:main.c        **** {
 937               		.loc 1 600 1 is_stmt 1 view -0
 938               		.cfi_startproc
 939               		.loc 1 600 1 is_stmt 0 view .LVU241
 940 02ec FF92      		push r15
 941               		.cfi_def_cfa_offset 3
 942               		.cfi_offset 15, -2
 943 02ee 0F93      		push r16
 944               		.cfi_def_cfa_offset 4
 945               		.cfi_offset 16, -3
 946 02f0 1F93      		push r17
 947               		.cfi_def_cfa_offset 5
 948               		.cfi_offset 17, -4
 949 02f2 CF93      		push r28
 950               		.cfi_def_cfa_offset 6
 951               		.cfi_offset 28, -5
 952 02f4 DF93      		push r29
 953               		.cfi_def_cfa_offset 7
 954               		.cfi_offset 29, -6
 955               	/* prologue: function */
 956               	/* frame size = 0 */
 957               	/* stack size = 5 */
 958               	.L__stack_usage = 5
 959 02f6 C82F      		mov r28,r24
 601:main.c        ****   uint8_t i;
 960               		.loc 1 601 3 is_stmt 1 view .LVU242
 602:main.c        ****   uint8_t sreg = SREG;
 961               		.loc 1 602 3 view .LVU243
 962               		.loc 1 602 11 is_stmt 0 view .LVU244
 963 02f8 FFB6      		in r15,__SREG__
 964               	.LVL52:
 603:main.c        ****   cli();
 965               		.loc 1 603 3 is_stmt 1 view .LVU245
 966               	/* #APP */
 967               	 ;  603 "main.c" 1
 968 02fa F894      		cli
 969               	 ;  0 "" 2
 604:main.c        ****   USBNWrite(TXC1, FLUSH);
 970               		.loc 1 604 3 view .LVU246
 971               	/* #NOAPP */
 972 02fc 68E0      		ldi r22,lo8(8)
 973 02fe 8BE2      		ldi r24,lo8(43)
 974               	.LVL53:
 975               		.loc 1 604 3 is_stmt 0 view .LVU247
 976 0300 0E94 0000 		call USBNWrite
 977               	.LVL54:
 605:main.c        ****   for(i = 0; i < length; i++)
 978               		.loc 1 605 3 is_stmt 1 view .LVU248
 979               		.loc 1 605 3 is_stmt 0 view .LVU249
 980 0304 D0E0      		ldi r29,0
 981 0306 00E0      		ldi r16,0
 982 0308 10E0      		ldi r17,0
 983               	.LVL55:
 984               	.L49:
 985               		.loc 1 605 16 is_stmt 1 discriminator 1 view .LVU250
 986 030a 0C17      		cp r16,r28
 987 030c 1D07      		cpc r17,r29
 988 030e 01F4      		brne .L50
 606:main.c        ****     USBNWrite(TXD1, answer[i]);
 607:main.c        **** 
 608:main.c        ****   /* control togl bit */
 609:main.c        ****   USBToglAndSend();
 989               		.loc 1 609 3 view .LVU251
 990 0310 0E94 0000 		call USBToglAndSend
 991               	.LVL56:
 610:main.c        ****   SREG = sreg;
 992               		.loc 1 610 3 view .LVU252
 993               		.loc 1 610 8 is_stmt 0 view .LVU253
 994 0314 FFBE      		out __SREG__,r15
 995               	/* epilogue start */
 611:main.c        **** }
 996               		.loc 1 611 1 view .LVU254
 997 0316 DF91      		pop r29
 998 0318 CF91      		pop r28
 999               	.LVL57:
 1000               		.loc 1 611 1 view .LVU255
 1001 031a 1F91      		pop r17
 1002 031c 0F91      		pop r16
 1003               	.LVL58:
 1004               		.loc 1 611 1 view .LVU256
 1005 031e FF90      		pop r15
 1006               	.LVL59:
 1007               		.loc 1 611 1 view .LVU257
 1008 0320 0895      		ret
 1009               	.LVL60:
 1010               	.L50:
 606:main.c        ****     USBNWrite(TXD1, answer[i]);
 1011               		.loc 1 606 5 is_stmt 1 view .LVU258
 606:main.c        ****     USBNWrite(TXD1, answer[i]);
 1012               		.loc 1 606 27 is_stmt 0 view .LVU259
 1013 0322 F801      		movw r30,r16
 1014 0324 E050      		subi r30,lo8(-(answer))
 1015 0326 F040      		sbci r31,hi8(-(answer))
 1016 0328 6081      		ld r22,Z
 606:main.c        ****     USBNWrite(TXD1, answer[i]);
 1017               		.loc 1 606 5 view .LVU260
 1018 032a 89E2      		ldi r24,lo8(41)
 1019 032c 0E94 0000 		call USBNWrite
 1020               	.LVL61:
 605:main.c        ****     USBNWrite(TXD1, answer[i]);
 1021               		.loc 1 605 27 is_stmt 1 discriminator 3 view .LVU261
 605:main.c        ****     USBNWrite(TXD1, answer[i]);
 1022               		.loc 1 605 27 is_stmt 0 discriminator 3 view .LVU262
 1023 0330 0F5F      		subi r16,-1
 1024 0332 1F4F      		sbci r17,-1
 1025               	.LVL62:
 605:main.c        ****     USBNWrite(TXD1, answer[i]);
 1026               		.loc 1 605 27 discriminator 3 view .LVU263
 1027 0334 00C0      		rjmp .L49
 1028               		.cfi_endproc
 1029               	.LFE83:
 1031               	.global	program_fsm
 1033               	program_fsm:
 1034               	.LVL63:
 1035               	.LFB80:
 359:main.c        ****   uint8_t databytes = 64;
 1036               		.loc 1 359 1 is_stmt 1 view -0
 1037               		.cfi_startproc
 359:main.c        ****   uint8_t databytes = 64;
 1038               		.loc 1 359 1 is_stmt 0 view .LVU265
 1039 0336 AF92      		push r10
 1040               		.cfi_def_cfa_offset 3
 1041               		.cfi_offset 10, -2
 1042 0338 BF92      		push r11
 1043               		.cfi_def_cfa_offset 4
 1044               		.cfi_offset 11, -3
 1045 033a CF92      		push r12
 1046               		.cfi_def_cfa_offset 5
 1047               		.cfi_offset 12, -4
 1048 033c DF92      		push r13
 1049               		.cfi_def_cfa_offset 6
 1050               		.cfi_offset 13, -5
 1051 033e EF92      		push r14
 1052               		.cfi_def_cfa_offset 7
 1053               		.cfi_offset 14, -6
 1054 0340 FF92      		push r15
 1055               		.cfi_def_cfa_offset 8
 1056               		.cfi_offset 15, -7
 1057 0342 0F93      		push r16
 1058               		.cfi_def_cfa_offset 9
 1059               		.cfi_offset 16, -8
 1060 0344 1F93      		push r17
 1061               		.cfi_def_cfa_offset 10
 1062               		.cfi_offset 17, -9
 1063 0346 CF93      		push r28
 1064               		.cfi_def_cfa_offset 11
 1065               		.cfi_offset 28, -10
 1066 0348 DF93      		push r29
 1067               		.cfi_def_cfa_offset 12
 1068               		.cfi_offset 29, -11
 1069               	/* prologue: function */
 1070               	/* frame size = 0 */
 1071               	/* stack size = 10 */
 1072               	.L__stack_usage = 10
 1073 034a 8C01      		movw r16,r24
 1074 034c D62F      		mov r29,r22
 360:main.c        ****   static uint8_t *ptr;
 1075               		.loc 1 360 3 is_stmt 1 view .LVU266
 1076               	.LVL64:
 361:main.c        **** 
 1077               		.loc 1 361 3 view .LVU267
 363:main.c        ****     // skip the header bytes
 1078               		.loc 1 363 3 view .LVU268
 363:main.c        ****     // skip the header bytes
 1079               		.loc 1 363 14 is_stmt 0 view .LVU269
 1080 034e 2091 0000 		lds r18,usbprog+3
 1081 0352 3091 0000 		lds r19,usbprog+3+1
 372:main.c        ****         answer[1] = STATUS_CMD_FAILED;      // we are not able to program more than this
 1082               		.loc 1 372 18 view .LVU270
 1083 0356 8091 0000 		lds r24,pgmmode
 1084 035a 9091 0000 		lds r25,pgmmode+1
 1085               	.LVL65:
 363:main.c        ****     // skip the header bytes
 1086               		.loc 1 363 6 view .LVU271
 1087 035e 232B      		or r18,r19
 1088 0360 01F4      		brne .+2
 1089 0362 00C0      		rjmp .L93
 365:main.c        ****     databytes -= 10;
 1090               		.loc 1 365 5 is_stmt 1 view .LVU272
 365:main.c        ****     databytes -= 10;
 1091               		.loc 1 365 12 is_stmt 0 view .LVU273
 1092 0364 065F      		subi r16,-10
 1093 0366 1F4F      		sbci r17,-1
 1094               	.LVL66:
 366:main.c        ****     
 1095               		.loc 1 366 5 is_stmt 1 view .LVU274
 368:main.c        ****       answer[0] = CMD_PROGRAM_EEPROM_ISP;
 1096               		.loc 1 368 5 view .LVU275
 368:main.c        ****       answer[0] = CMD_PROGRAM_EEPROM_ISP;
 1097               		.loc 1 368 8 is_stmt 0 view .LVU276
 1098 0368 6115      		cp r22, __zero_reg__
 1099 036a 01F4      		brne .+2
 1100 036c 00C0      		rjmp .L53
 369:main.c        ****       ptr = (uint8_t*)answer +_TMP_OFFSET;  // reserve some space at beginning of the buffer to han
 1101               		.loc 1 369 7 is_stmt 1 view .LVU277
 369:main.c        ****       ptr = (uint8_t*)answer +_TMP_OFFSET;  // reserve some space at beginning of the buffer to han
 1102               		.loc 1 369 17 is_stmt 0 view .LVU278
 1103 036e 25E1      		ldi r18,lo8(21)
 1104 0370 2093 0000 		sts answer,r18
 370:main.c        ****                                             // answer packets during programming if necessary
 1105               		.loc 1 370 7 is_stmt 1 view .LVU279
 370:main.c        ****                                             // answer packets during programming if necessary
 1106               		.loc 1 370 11 is_stmt 0 view .LVU280
 1107 0374 20E0      		ldi r18,lo8(answer+32)
 1108 0376 30E0      		ldi r19,hi8(answer+32)
 1109 0378 3093 0000 		sts ptr.0+1,r19
 1110 037c 2093 0000 		sts ptr.0,r18
 372:main.c        ****         answer[1] = STATUS_CMD_FAILED;      // we are not able to program more than this
 1111               		.loc 1 372 7 is_stmt 1 view .LVU281
 372:main.c        ****         answer[1] = STATUS_CMD_FAILED;      // we are not able to program more than this
 1112               		.loc 1 372 10 is_stmt 0 view .LVU282
 1113 0380 8D30      		cpi r24,13
 1114 0382 21E0      		ldi r18,1
 1115 0384 9207      		cpc r25,r18
 1116 0386 00F4      		brsh .+2
 1117 0388 00C0      		rjmp .L54
 373:main.c        ****                                             // in one cycle, because we haven't enough RAM
 1118               		.loc 1 373 9 is_stmt 1 view .LVU283
 373:main.c        ****                                             // in one cycle, because we haven't enough RAM
 1119               		.loc 1 373 19 is_stmt 0 view .LVU284
 1120 038a 20EC      		ldi r18,lo8(-64)
 1121 038c 2093 0000 		sts answer+1,r18
 389:main.c        ****     pgmmode.numbytes++;
 1122               		.loc 1 389 3 is_stmt 1 view .LVU285
 392:main.c        ****     pgmmode.numbytes-=databytes;
 1123               		.loc 1 392 3 view .LVU286
 366:main.c        ****     
 1124               		.loc 1 366 15 is_stmt 0 view .LVU287
 1125 0390 C6E3      		ldi r28,lo8(54)
 392:main.c        ****     pgmmode.numbytes-=databytes;
 1126               		.loc 1 392 23 view .LVU288
 1127 0392 26E3      		ldi r18,lo8(54)
 1128 0394 30E0      		ldi r19,0
 1129               	.LVL67:
 1130               	.L55:
 393:main.c        ****     usbprog.longpackage=1;        //Expect more data
 1131               		.loc 1 393 5 is_stmt 1 view .LVU289
 393:main.c        ****     usbprog.longpackage=1;        //Expect more data
 1132               		.loc 1 393 21 is_stmt 0 view .LVU290
 1133 0396 821B      		sub r24,r18
 1134 0398 930B      		sbc r25,r19
 1135 039a 9093 0000 		sts pgmmode+1,r25
 1136 039e 8093 0000 		sts pgmmode,r24
 394:main.c        ****   } else {
 1137               		.loc 1 394 5 is_stmt 1 view .LVU291
 394:main.c        ****   } else {
 1138               		.loc 1 394 24 is_stmt 0 view .LVU292
 1139 03a2 81E0      		ldi r24,lo8(1)
 1140 03a4 90E0      		ldi r25,0
 1141 03a6 9093 0000 		sts usbprog+1+1,r25
 1142 03aa 8093 0000 		sts usbprog+1,r24
 1143               	.L58:
 1144               	.LVL68:
 401:main.c        ****     // copy the datas to our temp buffer
 1145               		.loc 1 401 3 is_stmt 1 view .LVU293
 1146               	.LBB168:
 427:main.c        ****     }
 1147               		.loc 1 427 12 is_stmt 0 view .LVU294
 1148 03ae F090 0000 		lds r15,pgmmode+7
 1149               	.LBE168:
 401:main.c        ****     // copy the datas to our temp buffer
 1150               		.loc 1 401 6 view .LVU295
 1151 03b2 D115      		cp r29, __zero_reg__
 1152 03b4 01F4      		brne .+2
 1153 03b6 00C0      		rjmp .L60
 401:main.c        ****     // copy the datas to our temp buffer
 1154               		.loc 1 401 23 discriminator 1 view .LVU296
 1155 03b8 8091 0000 		lds r24,answer+1
 401:main.c        ****     // copy the datas to our temp buffer
 1156               		.loc 1 401 14 discriminator 1 view .LVU297
 1157 03bc 8111      		cpse r24,__zero_reg__
 1158 03be 00C0      		rjmp .L61
 403:main.c        ****     ptr += databytes;
 1159               		.loc 1 403 5 is_stmt 1 view .LVU298
 1160 03c0 CC2E      		mov r12,r28
 1161 03c2 D12C      		mov r13,__zero_reg__
 1162 03c4 E090 0000 		lds r14,ptr.0
 1163 03c8 F090 0000 		lds r15,ptr.0+1
 1164 03cc A601      		movw r20,r12
 1165 03ce B801      		movw r22,r16
 1166               	.LVL69:
 403:main.c        ****     ptr += databytes;
 1167               		.loc 1 403 5 is_stmt 0 view .LVU299
 1168 03d0 C701      		movw r24,r14
 1169 03d2 0E94 0000 		call memcpy
 1170               	.LVL70:
 404:main.c        ****   }
 1171               		.loc 1 404 5 is_stmt 1 view .LVU300
 404:main.c        ****   }
 1172               		.loc 1 404 9 is_stmt 0 view .LVU301
 1173 03d6 EC0C      		add r14,r12
 1174 03d8 FD1C      		adc r15,r13
 1175 03da F092 0000 		sts ptr.0+1,r15
 1176 03de E092 0000 		sts ptr.0,r14
 1177               	.L61:
 406:main.c        ****   {
 1178               		.loc 1 406 3 is_stmt 1 view .LVU302
 406:main.c        ****   {
 1179               		.loc 1 406 15 is_stmt 0 discriminator 1 view .LVU303
 1180 03e2 8091 0000 		lds r24,pgmmode
 1181 03e6 9091 0000 		lds r25,pgmmode+1
 1182 03ea 892B      		or r24,r25
 1183 03ec 01F0      		breq .+2
 1184 03ee 00C0      		rjmp .L51
 1185               	.LBB177:
 408:main.c        ****     uint8_t i;
 1186               		.loc 1 408 5 is_stmt 1 view .LVU304
 409:main.c        ****     uint8_t loop;
 1187               		.loc 1 409 5 view .LVU305
 410:main.c        ****     uint8_t tmp;
 1188               		.loc 1 410 5 view .LVU306
 411:main.c        **** 
 1189               		.loc 1 411 5 view .LVU307
 413:main.c        ****       if (answer[1] != STATUS_CMD_OK) {
 1190               		.loc 1 413 5 view .LVU308
 414:main.c        ****         // we got a buffer overflow, 
 1191               		.loc 1 414 7 view .LVU309
 414:main.c        ****         // we got a buffer overflow, 
 1192               		.loc 1 414 17 is_stmt 0 view .LVU310
 1193 03f0 8091 0000 		lds r24,answer+1
 414:main.c        ****         // we got a buffer overflow, 
 1194               		.loc 1 414 10 view .LVU311
 1195 03f4 8115      		cp r24, __zero_reg__
 1196 03f6 01F0      		breq .L64
 1197               	.LVL71:
 1198               	.L130:
 531:main.c        ****       pgmmode.poll_address_valid = 0;
 1199               		.loc 1 531 7 is_stmt 1 view .LVU312
 531:main.c        ****       pgmmode.poll_address_valid = 0;
 1200               		.loc 1 531 22 is_stmt 0 view .LVU313
 1201 03f8 1092 0000 		sts pgmmode+17,__zero_reg__
 532:main.c        ****       CommandAnswer(2);
 1202               		.loc 1 532 7 is_stmt 1 view .LVU314
 532:main.c        ****       CommandAnswer(2);
 1203               		.loc 1 532 34 is_stmt 0 view .LVU315
 1204 03fc 8091 0000 		lds r24,pgmmode+20
 1205 0400 8E7F      		andi r24,lo8(~(1<<0))
 1206 0402 8093 0000 		sts pgmmode+20,r24
 533:main.c        ****     }
 1207               		.loc 1 533 7 is_stmt 1 view .LVU316
 1208 0406 82E0      		ldi r24,lo8(2)
 1209               	/* epilogue start */
 1210               	.LBE177:
 536:main.c        **** 
 1211               		.loc 1 536 1 is_stmt 0 view .LVU317
 1212 0408 DF91      		pop r29
 1213               	.LVL72:
 536:main.c        **** 
 1214               		.loc 1 536 1 view .LVU318
 1215 040a CF91      		pop r28
 1216 040c 1F91      		pop r17
 1217 040e 0F91      		pop r16
 1218               	.LVL73:
 536:main.c        **** 
 1219               		.loc 1 536 1 view .LVU319
 1220 0410 FF90      		pop r15
 1221 0412 EF90      		pop r14
 1222 0414 DF90      		pop r13
 1223 0416 CF90      		pop r12
 1224 0418 BF90      		pop r11
 1225 041a AF90      		pop r10
 1226               	.LBB178:
 533:main.c        ****     }
 1227               		.loc 1 533 7 view .LVU320
 1228 041c 0C94 0000 		jmp CommandAnswer
 1229               	.LVL74:
 1230               	.L54:
 533:main.c        ****     }
 1231               		.loc 1 533 7 view .LVU321
 1232               	.LBE178:
 378:main.c        ****       }
 1233               		.loc 1 378 9 is_stmt 1 view .LVU322
 378:main.c        ****       }
 1234               		.loc 1 378 19 is_stmt 0 view .LVU323
 1235 0420 1092 0000 		sts answer+1,__zero_reg__
 1236               	.L53:
 366:main.c        ****     
 1237               		.loc 1 366 15 view .LVU324
 1238 0424 C6E3      		ldi r28,lo8(54)
 1239               	.LVL75:
 1240               	.L52:
 389:main.c        ****     pgmmode.numbytes++;
 1241               		.loc 1 389 3 is_stmt 1 view .LVU325
 1242 0426 2C2F      		mov r18,r28
 1243 0428 30E0      		ldi r19,0
 389:main.c        ****     pgmmode.numbytes++;
 1244               		.loc 1 389 6 is_stmt 0 view .LVU326
 1245 042a 8034      		cpi r24,64
 1246 042c 9105      		cpc r25,__zero_reg__
 1247 042e 01F4      		brne .L56
 392:main.c        ****     pgmmode.numbytes-=databytes;
 1248               		.loc 1 392 3 is_stmt 1 view .LVU327
 392:main.c        ****     pgmmode.numbytes-=databytes;
 1249               		.loc 1 392 23 is_stmt 0 view .LVU328
 1250 0430 81E4      		ldi r24,lo8(65)
 1251 0432 90E0      		ldi r25,0
 1252 0434 00C0      		rjmp .L55
 1253               	.LVL76:
 1254               	.L93:
 360:main.c        ****   static uint8_t *ptr;
 1255               		.loc 1 360 11 view .LVU329
 1256 0436 C0E4      		ldi r28,lo8(64)
 1257 0438 00C0      		rjmp .L52
 1258               	.LVL77:
 1259               	.L56:
 392:main.c        ****     pgmmode.numbytes-=databytes;
 1260               		.loc 1 392 3 is_stmt 1 view .LVU330
 392:main.c        ****     pgmmode.numbytes-=databytes;
 1261               		.loc 1 392 6 is_stmt 0 view .LVU331
 1262 043a 2817      		cp r18,r24
 1263 043c 3907      		cpc r19,r25
 1264 043e 00F4      		brsh .+2
 1265 0440 00C0      		rjmp .L55
 396:main.c        ****     pgmmode.numbytes=0;           //No more data left
 1266               		.loc 1 396 5 is_stmt 1 view .LVU332
 396:main.c        ****     pgmmode.numbytes=0;           //No more data left
 1267               		.loc 1 396 14 is_stmt 0 view .LVU333
 1268 0442 C82F      		mov r28,r24
 1269               	.LVL78:
 397:main.c        ****     usbprog.longpackage=0;        //Expect no more data
 1270               		.loc 1 397 5 is_stmt 1 view .LVU334
 397:main.c        ****     usbprog.longpackage=0;        //Expect no more data
 1271               		.loc 1 397 21 is_stmt 0 view .LVU335
 1272 0444 1092 0000 		sts pgmmode+1,__zero_reg__
 1273 0448 1092 0000 		sts pgmmode,__zero_reg__
 398:main.c        ****   }
 1274               		.loc 1 398 5 is_stmt 1 view .LVU336
 398:main.c        ****   }
 1275               		.loc 1 398 24 is_stmt 0 view .LVU337
 1276 044c 1092 0000 		sts usbprog+1+1,__zero_reg__
 1277 0450 1092 0000 		sts usbprog+1,__zero_reg__
 1278 0454 00C0      		rjmp .L58
 1279               	.LVL79:
 1280               	.L64:
 1281               	.LBB179:
 423:main.c        ****       databytes = ptr - buffer; 
 1282               		.loc 1 423 7 is_stmt 1 view .LVU338
 424:main.c        ****       poll = pgmmode.poll2;
 1283               		.loc 1 424 7 view .LVU339
 424:main.c        ****       poll = pgmmode.poll2;
 1284               		.loc 1 424 23 is_stmt 0 view .LVU340
 1285 0456 8091 0000 		lds r24,ptr.0
 1286 045a 9091 0000 		lds r25,ptr.0+1
 1287 045e 8050      		subi r24,lo8(answer+32)
 1288 0460 9040      		sbci r25,hi8(answer+32)
 424:main.c        ****       poll = pgmmode.poll2;
 1289               		.loc 1 424 17 view .LVU341
 1290 0462 C82F      		mov r28,r24
 1291               	.LVL80:
 425:main.c        ****     } else {
 1292               		.loc 1 425 7 is_stmt 1 view .LVU342
 425:main.c        ****     } else {
 1293               		.loc 1 425 12 is_stmt 0 view .LVU343
 1294 0464 F090 0000 		lds r15,pgmmode+8
 1295               	.LVL81:
 423:main.c        ****       databytes = ptr - buffer; 
 1296               		.loc 1 423 14 view .LVU344
 1297 0468 00E0      		ldi r16,lo8(answer+32)
 1298 046a 10E0      		ldi r17,hi8(answer+32)
 1299               	.LVL82:
 1300               	.L60:
 430:main.c        ****       if (pgmmode.large_flash && (pgmmode.address >> 16) != pgmmode.ext_address){
 1301               		.loc 1 430 5 is_stmt 1 view .LVU345
 430:main.c        ****       if (pgmmode.large_flash && (pgmmode.address >> 16) != pgmmode.ext_address){
 1302               		.loc 1 430 12 is_stmt 0 view .LVU346
 1303 046c E12C      		mov r14,__zero_reg__
 1304               	.LVL83:
 1305               	.L65:
 430:main.c        ****       if (pgmmode.large_flash && (pgmmode.address >> 16) != pgmmode.ext_address){
 1306               		.loc 1 430 19 is_stmt 1 discriminator 1 view .LVU347
 1307 046e CE11      		cpse r28,r14
 1308 0470 00C0      		rjmp .L80
 490:main.c        ****       if ((pgmmode.mode & 0x81) == 0x81) {
 1309               		.loc 1 490 5 view .LVU348
 490:main.c        ****       if ((pgmmode.mode & 0x81) == 0x81) {
 1310               		.loc 1 490 8 is_stmt 0 view .LVU349
 1311 0472 8091 0000 		lds r24,pgmmode
 1312 0476 9091 0000 		lds r25,pgmmode+1
 1313 047a 892B      		or r24,r25
 1314 047c 01F0      		breq .+2
 1315 047e 00C0      		rjmp .L51
 491:main.c        ****         // page mode
 1316               		.loc 1 491 7 is_stmt 1 view .LVU350
 491:main.c        ****         // page mode
 1317               		.loc 1 491 10 is_stmt 0 view .LVU351
 1318 0480 8091 0000 		lds r24,pgmmode+2
 1319 0484 8178      		andi r24,lo8(-127)
 1320 0486 8138      		cpi r24,lo8(-127)
 1321 0488 01F0      		breq .+2
 1322 048a 00C0      		rjmp .L83
 493:main.c        ****         spi_cmd(pgmmode.cmd2, pgmmode.pageaddress, 0);
 1323               		.loc 1 493 9 is_stmt 1 view .LVU352
 1324               	.LVL84:
 494:main.c        **** 
 1325               		.loc 1 494 9 view .LVU353
 1326 048c 6091 0000 		lds r22,pgmmode+13
 1327 0490 7091 0000 		lds r23,pgmmode+13+1
 1328 0494 40E0      		ldi r20,0
 1329 0496 8091 0000 		lds r24,pgmmode+5
 1330 049a 0E94 0000 		call spi_cmd
 1331               	.LVL85:
 496:main.c        ****           // RDY/BSY polling
 1332               		.loc 1 496 9 view .LVU354
 496:main.c        ****           // RDY/BSY polling
 1333               		.loc 1 496 20 is_stmt 0 view .LVU355
 1334 049e 8091 0000 		lds r24,pgmmode+2
 496:main.c        ****           // RDY/BSY polling
 1335               		.loc 1 496 12 view .LVU356
 1336 04a2 86FF      		sbrs r24,6
 1337 04a4 00C0      		rjmp .L84
 1338 04a6 C8EC      		ldi r28,lo8(-56)
 1339               	.LVL86:
 1340               	.L86:
 498:main.c        ****             _delay_us(250);
 1341               		.loc 1 498 11 is_stmt 1 view .LVU357
 499:main.c        ****             tmp = spi_cmd(0xf0, 0, 0);
 1342               		.loc 1 499 13 view .LVU358
 1343               	.LBB169:
 1344               	.LBI169:
 1345               		.file 3 "/opt/local/avr/include/util/delay.h"
   1:/opt/local/avr/include/util/delay.h **** /* Copyright (c) 2002, Marek Michalkiewicz
   2:/opt/local/avr/include/util/delay.h ****    Copyright (c) 2004,2005,2007 Joerg Wunsch
   3:/opt/local/avr/include/util/delay.h ****    Copyright (c) 2007  Florin-Viorel Petrov
   4:/opt/local/avr/include/util/delay.h ****    All rights reserved.
   5:/opt/local/avr/include/util/delay.h **** 
   6:/opt/local/avr/include/util/delay.h ****    Redistribution and use in source and binary forms, with or without
   7:/opt/local/avr/include/util/delay.h ****    modification, are permitted provided that the following conditions are met:
   8:/opt/local/avr/include/util/delay.h **** 
   9:/opt/local/avr/include/util/delay.h ****    * Redistributions of source code must retain the above copyright
  10:/opt/local/avr/include/util/delay.h ****      notice, this list of conditions and the following disclaimer.
  11:/opt/local/avr/include/util/delay.h **** 
  12:/opt/local/avr/include/util/delay.h ****    * Redistributions in binary form must reproduce the above copyright
  13:/opt/local/avr/include/util/delay.h ****      notice, this list of conditions and the following disclaimer in
  14:/opt/local/avr/include/util/delay.h ****      the documentation and/or other materials provided with the
  15:/opt/local/avr/include/util/delay.h ****      distribution.
  16:/opt/local/avr/include/util/delay.h **** 
  17:/opt/local/avr/include/util/delay.h ****    * Neither the name of the copyright holders nor the names of
  18:/opt/local/avr/include/util/delay.h ****      contributors may be used to endorse or promote products derived
  19:/opt/local/avr/include/util/delay.h ****      from this software without specific prior written permission.
  20:/opt/local/avr/include/util/delay.h **** 
  21:/opt/local/avr/include/util/delay.h ****   THIS SOFTWARE IS PROVIDED BY THE COPYRIGHT HOLDERS AND CONTRIBUTORS "AS IS"
  22:/opt/local/avr/include/util/delay.h ****   AND ANY EXPRESS OR IMPLIED WARRANTIES, INCLUDING, BUT NOT LIMITED TO, THE
  23:/opt/local/avr/include/util/delay.h ****   IMPLIED WARRANTIES OF MERCHANTABILITY AND FITNESS FOR A PARTICULAR PURPOSE
  24:/opt/local/avr/include/util/delay.h ****   ARE DISCLAIMED. IN NO EVENT SHALL THE COPYRIGHT OWNER OR CONTRIBUTORS BE
  25:/opt/local/avr/include/util/delay.h ****   LIABLE FOR ANY DIRECT, INDIRECT, INCIDENTAL, SPECIAL, EXEMPLARY, OR
  26:/opt/local/avr/include/util/delay.h ****   CONSEQUENTIAL DAMAGES (INCLUDING, BUT NOT LIMITED TO, PROCUREMENT OF
  27:/opt/local/avr/include/util/delay.h ****   SUBSTITUTE GOODS OR SERVICES; LOSS OF USE, DATA, OR PROFITS; OR BUSINESS
  28:/opt/local/avr/include/util/delay.h ****   INTERRUPTION) HOWEVER CAUSED AND ON ANY THEORY OF LIABILITY, WHETHER IN
  29:/opt/local/avr/include/util/delay.h ****   CONTRACT, STRICT LIABILITY, OR TORT (INCLUDING NEGLIGENCE OR OTHERWISE)
  30:/opt/local/avr/include/util/delay.h ****   ARISING IN ANY WAY OUT OF THE USE OF THIS SOFTWARE, EVEN IF ADVISED OF THE
  31:/opt/local/avr/include/util/delay.h ****   POSSIBILITY OF SUCH DAMAGE. */
  32:/opt/local/avr/include/util/delay.h **** 
  33:/opt/local/avr/include/util/delay.h **** /* $Id$ */
  34:/opt/local/avr/include/util/delay.h **** 
  35:/opt/local/avr/include/util/delay.h **** #ifndef _UTIL_DELAY_H_
  36:/opt/local/avr/include/util/delay.h **** #define _UTIL_DELAY_H_ 1
  37:/opt/local/avr/include/util/delay.h **** 
  38:/opt/local/avr/include/util/delay.h **** #ifndef __DOXYGEN__
  39:/opt/local/avr/include/util/delay.h **** #  ifndef __HAS_DELAY_CYCLES
  40:/opt/local/avr/include/util/delay.h **** #    define __HAS_DELAY_CYCLES 1
  41:/opt/local/avr/include/util/delay.h **** #  endif
  42:/opt/local/avr/include/util/delay.h **** 
  43:/opt/local/avr/include/util/delay.h **** #  ifndef __ATTR_ALWAYS_INLINE__
  44:/opt/local/avr/include/util/delay.h **** #    define __ATTR_ALWAYS_INLINE__ __inline__ __attribute__((__always_inline__))
  45:/opt/local/avr/include/util/delay.h **** #  endif
  46:/opt/local/avr/include/util/delay.h **** 
  47:/opt/local/avr/include/util/delay.h **** #endif  /* __DOXYGEN__ */
  48:/opt/local/avr/include/util/delay.h **** 
  49:/opt/local/avr/include/util/delay.h **** #include <stdint.h>
  50:/opt/local/avr/include/util/delay.h **** #include <util/delay_basic.h>
  51:/opt/local/avr/include/util/delay.h **** 
  52:/opt/local/avr/include/util/delay.h **** /** \file */
  53:/opt/local/avr/include/util/delay.h **** /** \defgroup util_delay <util/delay.h>: Convenience functions for busy-wait delay loops
  54:/opt/local/avr/include/util/delay.h ****     \code
  55:/opt/local/avr/include/util/delay.h ****     #define F_CPU 1000000UL  // 1 MHz
  56:/opt/local/avr/include/util/delay.h ****     //#define F_CPU 14.7456e6
  57:/opt/local/avr/include/util/delay.h ****     #include <util/delay.h>
  58:/opt/local/avr/include/util/delay.h ****     \endcode
  59:/opt/local/avr/include/util/delay.h **** 
  60:/opt/local/avr/include/util/delay.h ****     \note As an alternative method, it is possible to pass the
  61:/opt/local/avr/include/util/delay.h ****     F_CPU macro down to the compiler from the Makefile.
  62:/opt/local/avr/include/util/delay.h ****     Obviously, in that case, no \c \#define statement should be
  63:/opt/local/avr/include/util/delay.h ****     used.
  64:/opt/local/avr/include/util/delay.h **** 
  65:/opt/local/avr/include/util/delay.h ****     The functions in this header file are wrappers around the basic
  66:/opt/local/avr/include/util/delay.h ****     busy-wait functions from <tt>\<util/delay_basic.h\></tt>.  They are meant as
  67:/opt/local/avr/include/util/delay.h ****     convenience functions where actual time values can be specified
  68:/opt/local/avr/include/util/delay.h ****     rather than a number of cycles to wait for.  The idea behind is
  69:/opt/local/avr/include/util/delay.h ****     that compile-time constant expressions will be eliminated by
  70:/opt/local/avr/include/util/delay.h ****     compiler optimization so floating-point expressions can be used
  71:/opt/local/avr/include/util/delay.h ****     to calculate the number of delay cycles needed based on the CPU
  72:/opt/local/avr/include/util/delay.h ****     frequency passed by the macro F_CPU.
  73:/opt/local/avr/include/util/delay.h **** 
  74:/opt/local/avr/include/util/delay.h ****     \note In order for these functions to work as intended, compiler
  75:/opt/local/avr/include/util/delay.h ****     optimizations <em>must</em> be enabled, and the delay time
  76:/opt/local/avr/include/util/delay.h ****     <em>must</em> be an expression that is a known constant at
  77:/opt/local/avr/include/util/delay.h ****     compile-time.  If these requirements are not met, the resulting
  78:/opt/local/avr/include/util/delay.h ****     delay will be much longer (and basically unpredictable), and
  79:/opt/local/avr/include/util/delay.h ****     applications that otherwise do not use floating-point calculations
  80:/opt/local/avr/include/util/delay.h ****     will experience severe code bloat by the floating-point library
  81:/opt/local/avr/include/util/delay.h ****     routines linked into the application.
  82:/opt/local/avr/include/util/delay.h **** 
  83:/opt/local/avr/include/util/delay.h ****     The functions available allow the specification of microsecond, and
  84:/opt/local/avr/include/util/delay.h ****     millisecond delays directly, using the application-supplied macro
  85:/opt/local/avr/include/util/delay.h ****     F_CPU as the CPU clock frequency (in Hertz).
  86:/opt/local/avr/include/util/delay.h **** */
  87:/opt/local/avr/include/util/delay.h **** 
  88:/opt/local/avr/include/util/delay.h **** 
  89:/opt/local/avr/include/util/delay.h **** #ifndef F_CPU
  90:/opt/local/avr/include/util/delay.h **** /* prevent compiler error by supplying a default */
  91:/opt/local/avr/include/util/delay.h **** # warning "F_CPU not defined for <util/delay.h>"
  92:/opt/local/avr/include/util/delay.h **** /** \ingroup util_delay
  93:/opt/local/avr/include/util/delay.h ****     \def F_CPU
  94:/opt/local/avr/include/util/delay.h ****     \brief CPU frequency in Hz
  95:/opt/local/avr/include/util/delay.h **** 
  96:/opt/local/avr/include/util/delay.h ****     The macro F_CPU specifies the CPU frequency to be considered by
  97:/opt/local/avr/include/util/delay.h ****     the delay macros.  This macro is normally supplied by the
  98:/opt/local/avr/include/util/delay.h ****     environment (e.g. from within a project header, or the project's
  99:/opt/local/avr/include/util/delay.h ****     Makefile).  The value 1 MHz here is only provided as a "vanilla"
 100:/opt/local/avr/include/util/delay.h ****     fallback if no such user-provided definition could be found.
 101:/opt/local/avr/include/util/delay.h **** 
 102:/opt/local/avr/include/util/delay.h ****     In terms of the delay functions, the CPU frequency can be given as
 103:/opt/local/avr/include/util/delay.h ****     a floating-point constant (e.g. 3.6864e6 for 3.6864 MHz).
 104:/opt/local/avr/include/util/delay.h ****     However, the macros in <util/setbaud.h> require it to be an
 105:/opt/local/avr/include/util/delay.h ****     integer value.
 106:/opt/local/avr/include/util/delay.h ****  */
 107:/opt/local/avr/include/util/delay.h **** # define F_CPU 1000000UL
 108:/opt/local/avr/include/util/delay.h **** #endif
 109:/opt/local/avr/include/util/delay.h **** 
 110:/opt/local/avr/include/util/delay.h **** #ifndef __OPTIMIZE__
 111:/opt/local/avr/include/util/delay.h **** # warning "Compiler optimizations disabled; functions from <util/delay.h> won't work as designed"
 112:/opt/local/avr/include/util/delay.h **** #endif
 113:/opt/local/avr/include/util/delay.h **** 
 114:/opt/local/avr/include/util/delay.h **** /**
 115:/opt/local/avr/include/util/delay.h ****    \ingroup util_delay
 116:/opt/local/avr/include/util/delay.h **** 
 117:/opt/local/avr/include/util/delay.h ****    Perform a delay of \c __ms milliseconds, using _delay_loop_2().
 118:/opt/local/avr/include/util/delay.h **** 
 119:/opt/local/avr/include/util/delay.h ****    The macro #F_CPU is supposed to be defined to a
 120:/opt/local/avr/include/util/delay.h ****    constant defining the CPU clock frequency (in Hertz).
 121:/opt/local/avr/include/util/delay.h **** 
 122:/opt/local/avr/include/util/delay.h ****    The maximal possible delay is 262.14 ms / F_CPU in MHz.
 123:/opt/local/avr/include/util/delay.h **** 
 124:/opt/local/avr/include/util/delay.h ****    When the user request delay which exceed the maximum possible one,
 125:/opt/local/avr/include/util/delay.h ****    _delay_ms() provides a decreased resolution functionality. In this
 126:/opt/local/avr/include/util/delay.h ****    mode _delay_ms() will work with a resolution of 1/10&nbsp;ms, providing
 127:/opt/local/avr/include/util/delay.h ****    delays up to 6.5535 seconds (independent from CPU frequency).  The
 128:/opt/local/avr/include/util/delay.h ****    user will not be informed about decreased resolution.
 129:/opt/local/avr/include/util/delay.h **** 
 130:/opt/local/avr/include/util/delay.h ****    If the avr-gcc toolchain has \c __builtin_avr_delay_cycles()
 131:/opt/local/avr/include/util/delay.h ****    support, maximal possible delay is 4294967.295 ms/ F_CPU in MHz. For
 132:/opt/local/avr/include/util/delay.h ****    values greater than the maximal possible delay, overflow may result in
 133:/opt/local/avr/include/util/delay.h ****    no delay i.e., 0&nbsp;ms.
 134:/opt/local/avr/include/util/delay.h **** 
 135:/opt/local/avr/include/util/delay.h ****    Conversion of \c __ms into clock cycles may not always result in
 136:/opt/local/avr/include/util/delay.h ****    an integral value.  By default, the clock cycles are rounded up to the next
 137:/opt/local/avr/include/util/delay.h ****    integer. This ensures that the user gets at least \c __ms
 138:/opt/local/avr/include/util/delay.h ****    microseconds of delay.
 139:/opt/local/avr/include/util/delay.h **** 
 140:/opt/local/avr/include/util/delay.h ****    Alternatively, by defining the macro \c __DELAY_ROUND_DOWN__, or
 141:/opt/local/avr/include/util/delay.h ****    \c __DELAY_ROUND_CLOSEST__, before including this header file, the
 142:/opt/local/avr/include/util/delay.h ****    algorithm can be made to round down, or round to closest integer,
 143:/opt/local/avr/include/util/delay.h ****    respectively.
 144:/opt/local/avr/include/util/delay.h **** 
 145:/opt/local/avr/include/util/delay.h ****    \note The implementation of _delay_ms() based on
 146:/opt/local/avr/include/util/delay.h ****    \c __builtin_avr_delay_cycles() is not backward compatible with older
 147:/opt/local/avr/include/util/delay.h ****    implementations.  In order to get functionality backward compatible
 148:/opt/local/avr/include/util/delay.h ****    with previous versions, the macro \c __DELAY_BACKWARD_COMPATIBLE__
 149:/opt/local/avr/include/util/delay.h ****    must be defined before including this header file.
 150:/opt/local/avr/include/util/delay.h ****  */
 151:/opt/local/avr/include/util/delay.h **** static __ATTR_ALWAYS_INLINE__ void _delay_ms(double __ms);
 152:/opt/local/avr/include/util/delay.h **** 
 153:/opt/local/avr/include/util/delay.h **** void
 154:/opt/local/avr/include/util/delay.h **** _delay_ms(double __ms)
 155:/opt/local/avr/include/util/delay.h **** {
 156:/opt/local/avr/include/util/delay.h **** 	double __tmp ;
 157:/opt/local/avr/include/util/delay.h **** #if __HAS_DELAY_CYCLES && defined(__OPTIMIZE__) \
 158:/opt/local/avr/include/util/delay.h ****   && !defined(__DELAY_BACKWARD_COMPATIBLE__)
 159:/opt/local/avr/include/util/delay.h **** 	uint32_t __ticks_dc;
 160:/opt/local/avr/include/util/delay.h **** 	extern void __builtin_avr_delay_cycles(uint32_t);
 161:/opt/local/avr/include/util/delay.h **** 	__tmp = ((F_CPU) / 1e3) * __ms;
 162:/opt/local/avr/include/util/delay.h **** 
 163:/opt/local/avr/include/util/delay.h **** 	#if defined(__DELAY_ROUND_DOWN__)
 164:/opt/local/avr/include/util/delay.h **** 		__ticks_dc = (uint32_t)__builtin_fabs(__tmp);
 165:/opt/local/avr/include/util/delay.h **** 
 166:/opt/local/avr/include/util/delay.h **** 	#elif defined(__DELAY_ROUND_CLOSEST__)
 167:/opt/local/avr/include/util/delay.h **** 		__ticks_dc = (uint32_t)(__builtin_fabs(__tmp)+0.5);
 168:/opt/local/avr/include/util/delay.h **** 
 169:/opt/local/avr/include/util/delay.h **** 	#else
 170:/opt/local/avr/include/util/delay.h **** 		//round up by default
 171:/opt/local/avr/include/util/delay.h **** 		__ticks_dc = (uint32_t)(__builtin_ceil(__builtin_fabs(__tmp)));
 172:/opt/local/avr/include/util/delay.h **** 	#endif
 173:/opt/local/avr/include/util/delay.h **** 
 174:/opt/local/avr/include/util/delay.h **** 	__builtin_avr_delay_cycles(__ticks_dc);
 175:/opt/local/avr/include/util/delay.h **** 
 176:/opt/local/avr/include/util/delay.h **** #else
 177:/opt/local/avr/include/util/delay.h **** 	uint16_t __ticks;
 178:/opt/local/avr/include/util/delay.h **** 	__tmp = ((F_CPU) / 4e3) * __ms;
 179:/opt/local/avr/include/util/delay.h **** 	if (__tmp < 1.0)
 180:/opt/local/avr/include/util/delay.h **** 		__ticks = 1;
 181:/opt/local/avr/include/util/delay.h **** 	else if (__tmp > 65535)
 182:/opt/local/avr/include/util/delay.h **** 	{
 183:/opt/local/avr/include/util/delay.h **** 		//	__ticks = requested delay in 1/10 ms
 184:/opt/local/avr/include/util/delay.h **** 		__ticks = (uint16_t) (__ms * 10.0);
 185:/opt/local/avr/include/util/delay.h **** 		while(__ticks)
 186:/opt/local/avr/include/util/delay.h **** 		{
 187:/opt/local/avr/include/util/delay.h **** 			// wait 1/10 ms
 188:/opt/local/avr/include/util/delay.h **** 			_delay_loop_2(((F_CPU) / 4e3) / 10);
 189:/opt/local/avr/include/util/delay.h **** 			__ticks --;
 190:/opt/local/avr/include/util/delay.h **** 		}
 191:/opt/local/avr/include/util/delay.h **** 		return;
 192:/opt/local/avr/include/util/delay.h **** 	}
 193:/opt/local/avr/include/util/delay.h **** 	else
 194:/opt/local/avr/include/util/delay.h **** 		__ticks = (uint16_t)__tmp;
 195:/opt/local/avr/include/util/delay.h **** 	_delay_loop_2(__ticks);
 196:/opt/local/avr/include/util/delay.h **** #endif
 197:/opt/local/avr/include/util/delay.h **** }
 198:/opt/local/avr/include/util/delay.h **** 
 199:/opt/local/avr/include/util/delay.h **** /**
 200:/opt/local/avr/include/util/delay.h ****    \ingroup util_delay
 201:/opt/local/avr/include/util/delay.h **** 
 202:/opt/local/avr/include/util/delay.h ****    Perform a delay of \c __us microseconds, using _delay_loop_1().
 203:/opt/local/avr/include/util/delay.h **** 
 204:/opt/local/avr/include/util/delay.h ****    The macro #F_CPU is supposed to be defined to a
 205:/opt/local/avr/include/util/delay.h ****    constant defining the CPU clock frequency (in Hertz).
 206:/opt/local/avr/include/util/delay.h **** 
 207:/opt/local/avr/include/util/delay.h ****    The maximal possible delay is 768 &mu;s / F_CPU in MHz.
 208:/opt/local/avr/include/util/delay.h **** 
 209:/opt/local/avr/include/util/delay.h ****    If the user requests a delay greater than the maximal possible one,
 210:/opt/local/avr/include/util/delay.h ****    _delay_us() will automatically call _delay_ms() instead.  The user
 211:/opt/local/avr/include/util/delay.h ****    will not be informed about this case.
 212:/opt/local/avr/include/util/delay.h **** 
 213:/opt/local/avr/include/util/delay.h ****    If the avr-gcc toolchain has __builtin_avr_delay_cycles()
 214:/opt/local/avr/include/util/delay.h ****    support, maximal possible delay is 4294967.295 &mu;s/ F_CPU in MHz. For
 215:/opt/local/avr/include/util/delay.h ****    values greater than the maximal possible delay, overflow may result in
 216:/opt/local/avr/include/util/delay.h ****    no delay i.e., 0&nbsp;&mu;s.
 217:/opt/local/avr/include/util/delay.h **** 
 218:/opt/local/avr/include/util/delay.h ****    Conversion of \c __us into clock cycles may not always result in
 219:/opt/local/avr/include/util/delay.h ****    integer.  By default, the clock cycles are rounded up to next
 220:/opt/local/avr/include/util/delay.h ****    integer. This ensures that the user gets at least \c __us
 221:/opt/local/avr/include/util/delay.h ****    microseconds of delay.
 222:/opt/local/avr/include/util/delay.h **** 
 223:/opt/local/avr/include/util/delay.h ****    Alternatively, by defining the macro \c __DELAY_ROUND_DOWN__, or
 224:/opt/local/avr/include/util/delay.h ****    \c __DELAY_ROUND_CLOSEST__, before including this header file, the
 225:/opt/local/avr/include/util/delay.h ****    algorithm can be made to round down, or round to closest integer,
 226:/opt/local/avr/include/util/delay.h ****    respectively.
 227:/opt/local/avr/include/util/delay.h **** 
 228:/opt/local/avr/include/util/delay.h ****    \note The implementation of _delay_us() based on
 229:/opt/local/avr/include/util/delay.h ****    \c __builtin_avr_delay_cycles() is not backward compatible with older
 230:/opt/local/avr/include/util/delay.h ****    implementations.  In order to get functionality backward compatible
 231:/opt/local/avr/include/util/delay.h ****    with previous versions, the macro \c __DELAY_BACKWARD_COMPATIBLE__
 232:/opt/local/avr/include/util/delay.h ****    must be defined before including this header file.
 233:/opt/local/avr/include/util/delay.h ****  */
 234:/opt/local/avr/include/util/delay.h **** static __ATTR_ALWAYS_INLINE__ void _delay_us(double __us);
 235:/opt/local/avr/include/util/delay.h **** 
 236:/opt/local/avr/include/util/delay.h **** void
 237:/opt/local/avr/include/util/delay.h **** _delay_us(double __us)
 1346               		.loc 3 237 1 view .LVU359
 1347               	.LBB170:
 238:/opt/local/avr/include/util/delay.h **** {
 239:/opt/local/avr/include/util/delay.h **** 	double __tmp ;
 1348               		.loc 3 239 2 view .LVU360
 240:/opt/local/avr/include/util/delay.h **** #if __HAS_DELAY_CYCLES && defined(__OPTIMIZE__) \
 241:/opt/local/avr/include/util/delay.h ****   && !defined(__DELAY_BACKWARD_COMPATIBLE__)
 242:/opt/local/avr/include/util/delay.h **** 	uint32_t __ticks_dc;
 1349               		.loc 3 242 2 view .LVU361
 243:/opt/local/avr/include/util/delay.h **** 	extern void __builtin_avr_delay_cycles(uint32_t);
 1350               		.loc 3 243 2 view .LVU362
 244:/opt/local/avr/include/util/delay.h **** 	__tmp = ((F_CPU) / 1e6) * __us;
 1351               		.loc 3 244 2 view .LVU363
 245:/opt/local/avr/include/util/delay.h **** 
 246:/opt/local/avr/include/util/delay.h **** 	#if defined(__DELAY_ROUND_DOWN__)
 247:/opt/local/avr/include/util/delay.h **** 		__ticks_dc = (uint32_t)__builtin_fabs(__tmp);
 248:/opt/local/avr/include/util/delay.h **** 
 249:/opt/local/avr/include/util/delay.h **** 	#elif defined(__DELAY_ROUND_CLOSEST__)
 250:/opt/local/avr/include/util/delay.h **** 		__ticks_dc = (uint32_t)(__builtin_fabs(__tmp)+0.5);
 251:/opt/local/avr/include/util/delay.h **** 
 252:/opt/local/avr/include/util/delay.h **** 	#else
 253:/opt/local/avr/include/util/delay.h **** 		//round up by default
 254:/opt/local/avr/include/util/delay.h **** 		__ticks_dc = (uint32_t)(__builtin_ceil(__builtin_fabs(__tmp)));
 1352               		.loc 3 254 3 view .LVU364
 255:/opt/local/avr/include/util/delay.h **** 	#endif
 256:/opt/local/avr/include/util/delay.h **** 
 257:/opt/local/avr/include/util/delay.h **** 	__builtin_avr_delay_cycles(__ticks_dc);
 1353               		.loc 3 257 2 view .LVU365
 1354 04a8 87EE      		ldi r24,lo8(999)
 1355 04aa 93E0      		ldi r25,hi8(999)
 1356 04ac 0197      	1:	sbiw r24,1
 1357 04ae 01F4      		brne 1b
 1358 04b0 00C0      		rjmp .
 1359 04b2 0000      		nop
 1360               	.LVL87:
 1361               		.loc 3 257 2 is_stmt 0 view .LVU366
 1362               	.LBE170:
 1363               	.LBE169:
 500:main.c        ****           }
 1364               		.loc 1 500 13 is_stmt 1 view .LVU367
 500:main.c        ****           }
 1365               		.loc 1 500 19 is_stmt 0 view .LVU368
 1366 04b4 40E0      		ldi r20,0
 1367 04b6 60E0      		ldi r22,0
 1368 04b8 70E0      		ldi r23,0
 1369 04ba 80EF      		ldi r24,lo8(-16)
 1370 04bc 0E94 0000 		call spi_cmd
 1371               	.LVL88:
 502:main.c        **** 
 1372               		.loc 1 502 28 is_stmt 1 discriminator 2 view .LVU369
 1373 04c0 80FF      		sbrs r24,0
 1374 04c2 00C0      		rjmp .L83
 1375               	.LVL89:
 502:main.c        **** 
 1376               		.loc 1 502 28 is_stmt 0 discriminator 1 view .LVU370
 1377 04c4 CA95      		dec r28
 1378               	.LVL90:
 502:main.c        **** 
 1379               		.loc 1 502 28 discriminator 1 view .LVU371
 1380 04c6 01F4      		brne .L86
 504:main.c        ****             pgmmode.status = STATUS_RDY_BSY_TOUT;
 1381               		.loc 1 504 11 is_stmt 1 view .LVU372
 505:main.c        ****           }
 1382               		.loc 1 505 13 view .LVU373
 505:main.c        ****           }
 1383               		.loc 1 505 28 is_stmt 0 view .LVU374
 1384 04c8 81E8      		ldi r24,lo8(-127)
 1385               	.LVL91:
 505:main.c        ****           }
 1386               		.loc 1 505 28 view .LVU375
 1387 04ca 00C0      		rjmp .L129
 1388               	.LVL92:
 1389               	.L80:
 431:main.c        ****         // set the extended page address
 1390               		.loc 1 431 7 is_stmt 1 view .LVU376
 431:main.c        ****         // set the extended page address
 1391               		.loc 1 431 11 is_stmt 0 view .LVU377
 1392 04cc 8091 0000 		lds r24,pgmmode+20
 431:main.c        ****         // set the extended page address
 1393               		.loc 1 431 10 view .LVU378
 1394 04d0 82FF      		sbrs r24,2
 1395 04d2 00C0      		rjmp .L66
 431:main.c        ****         // set the extended page address
 1396               		.loc 1 431 51 discriminator 1 view .LVU379
 1397 04d4 6091 0000 		lds r22,pgmmode+9
 1398 04d8 7091 0000 		lds r23,pgmmode+9+1
 1399 04dc 8091 0000 		lds r24,pgmmode+9+2
 1400 04e0 9091 0000 		lds r25,pgmmode+9+3
 1401 04e4 BC01      		movw r22,r24
 1402 04e6 8827      		clr r24
 1403 04e8 9927      		clr r25
 431:main.c        ****         // set the extended page address
 1404               		.loc 1 431 68 discriminator 1 view .LVU380
 1405 04ea 2091 0000 		lds r18,pgmmode+21
 1406 04ee 3091 0000 		lds r19,pgmmode+21+1
 431:main.c        ****         // set the extended page address
 1407               		.loc 1 431 31 discriminator 1 view .LVU381
 1408 04f2 2617      		cp r18,r22
 1409 04f4 3707      		cpc r19,r23
 1410 04f6 1806      		cpc __zero_reg__,r24
 1411 04f8 1906      		cpc __zero_reg__,r25
 1412 04fa 01F0      		breq .L66
 433:main.c        ****         spi_cmd(0x4d, pgmmode.ext_address, 0x00);
 1413               		.loc 1 433 9 is_stmt 1 view .LVU382
 433:main.c        ****         spi_cmd(0x4d, pgmmode.ext_address, 0x00);
 1414               		.loc 1 433 29 is_stmt 0 view .LVU383
 1415 04fc 7093 0000 		sts pgmmode+21+1,r23
 1416 0500 6093 0000 		sts pgmmode+21,r22
 434:main.c        ****       }
 1417               		.loc 1 434 9 is_stmt 1 view .LVU384
 1418 0504 40E0      		ldi r20,0
 1419 0506 8DE4      		ldi r24,lo8(77)
 1420 0508 0E94 0000 		call spi_cmd
 1421               	.LVL93:
 1422               	.L66:
 436:main.c        ****         if (i&1){
 1423               		.loc 1 436 7 view .LVU385
 1424 050c 8E2D      		mov r24,r14
 1425 050e 8170      		andi r24,lo8(1)
 1426 0510 B82E      		mov r11,r24
 436:main.c        ****         if (i&1){
 1427               		.loc 1 436 10 is_stmt 0 view .LVU386
 1428 0512 D111      		cpse r29,__zero_reg__
 1429 0514 00C0      		rjmp .L67
 438:main.c        ****         }else{
 1430               		.loc 1 438 18 view .LVU387
 1431 0516 8091 0000 		lds r24,pgmmode+4
 437:main.c        ****           pgmmode.cmd1 |= 8;
 1432               		.loc 1 437 9 is_stmt 1 view .LVU388
 437:main.c        ****           pgmmode.cmd1 |= 8;
 1433               		.loc 1 437 12 is_stmt 0 view .LVU389
 1434 051a B114      		cp r11, __zero_reg__
 1435 051c 01F0      		breq .L68
 438:main.c        ****         }else{
 1436               		.loc 1 438 11 is_stmt 1 view .LVU390
 438:main.c        ****         }else{
 1437               		.loc 1 438 24 is_stmt 0 view .LVU391
 1438 051e 8860      		ori r24,lo8(8)
 1439               	.L125:
 440:main.c        ****         }
 1440               		.loc 1 440 24 view .LVU392
 1441 0520 8093 0000 		sts pgmmode+4,r24
 1442               	.L67:
 443:main.c        ****       if (!(pgmmode.mode & 1)) {
 1443               		.loc 1 443 7 is_stmt 1 view .LVU393
 1444 0524 F801      		movw r30,r16
 1445 0526 4191      		ld r20,Z+
 1446 0528 8F01      		movw r16,r30
 1447               	.LVL94:
 443:main.c        ****       if (!(pgmmode.mode & 1)) {
 1448               		.loc 1 443 7 is_stmt 0 view .LVU394
 1449 052a 6091 0000 		lds r22,pgmmode+9
 1450 052e 7091 0000 		lds r23,pgmmode+9+1
 1451 0532 8091 0000 		lds r24,pgmmode+4
 1452 0536 0E94 0000 		call spi_cmd
 1453               	.LVL95:
 444:main.c        ****         // byte/word mode
 1454               		.loc 1 444 7 is_stmt 1 view .LVU395
 444:main.c        ****         // byte/word mode
 1455               		.loc 1 444 20 is_stmt 0 view .LVU396
 1456 053a 8091 0000 		lds r24,pgmmode+2
 444:main.c        ****         // byte/word mode
 1457               		.loc 1 444 10 view .LVU397
 1458 053e 80FD      		sbrc r24,0
 1459 0540 00C0      		rjmp .L69
 446:main.c        ****         if (pgmmode.mode & 8) {
 1460               		.loc 1 446 9 is_stmt 1 view .LVU398
 1461               	.LVL96:
 447:main.c        ****           // RDY/BSY polling
 1462               		.loc 1 447 9 view .LVU399
 447:main.c        ****           // RDY/BSY polling
 1463               		.loc 1 447 12 is_stmt 0 view .LVU400
 1464 0542 83FF      		sbrs r24,3
 1465 0544 00C0      		rjmp .L70
 1466 0546 98EC      		ldi r25,lo8(-56)
 1467 0548 D92E      		mov r13,r25
 1468               	.LVL97:
 1469               	.L72:
 449:main.c        ****             _delay_us(250);
 1470               		.loc 1 449 11 is_stmt 1 view .LVU401
 450:main.c        ****             tmp = spi_cmd(0xf0, 0, 0);
 1471               		.loc 1 450 13 view .LVU402
 1472               	.LBB171:
 1473               	.LBI171:
 237:/opt/local/avr/include/util/delay.h **** {
 1474               		.loc 3 237 1 view .LVU403
 1475               	.LBB172:
 239:/opt/local/avr/include/util/delay.h **** #if __HAS_DELAY_CYCLES && defined(__OPTIMIZE__) \
 1476               		.loc 3 239 2 view .LVU404
 242:/opt/local/avr/include/util/delay.h **** 	extern void __builtin_avr_delay_cycles(uint32_t);
 1477               		.loc 3 242 2 view .LVU405
 243:/opt/local/avr/include/util/delay.h **** 	__tmp = ((F_CPU) / 1e6) * __us;
 1478               		.loc 3 243 2 view .LVU406
 244:/opt/local/avr/include/util/delay.h **** 
 1479               		.loc 3 244 2 view .LVU407
 254:/opt/local/avr/include/util/delay.h **** 	#endif
 1480               		.loc 3 254 3 view .LVU408
 1481               		.loc 3 257 2 view .LVU409
 1482 054a 87EE      		ldi r24,lo8(999)
 1483 054c 93E0      		ldi r25,hi8(999)
 1484 054e 0197      	1:	sbiw r24,1
 1485 0550 01F4      		brne 1b
 1486 0552 00C0      		rjmp .
 1487 0554 0000      		nop
 1488               	.LVL98:
 1489               		.loc 3 257 2 is_stmt 0 view .LVU410
 1490               	.LBE172:
 1491               	.LBE171:
 451:main.c        ****           }
 1492               		.loc 1 451 13 is_stmt 1 view .LVU411
 451:main.c        ****           }
 1493               		.loc 1 451 19 is_stmt 0 view .LVU412
 1494 0556 40E0      		ldi r20,0
 1495 0558 60E0      		ldi r22,0
 1496 055a 70E0      		ldi r23,0
 1497 055c 80EF      		ldi r24,lo8(-16)
 1498 055e 0E94 0000 		call spi_cmd
 1499               	.LVL99:
 453:main.c        **** 
 1500               		.loc 1 453 28 is_stmt 1 discriminator 2 view .LVU413
 1501 0562 80FF      		sbrs r24,0
 1502 0564 00C0      		rjmp .L74
 1503               	.LVL100:
 453:main.c        **** 
 1504               		.loc 1 453 28 is_stmt 0 discriminator 1 view .LVU414
 1505 0566 DA94      		dec r13
 1506               	.LVL101:
 453:main.c        **** 
 1507               		.loc 1 453 28 discriminator 1 view .LVU415
 1508 0568 01F4      		brne .L72
 455:main.c        ****             pgmmode.status = STATUS_RDY_BSY_TOUT;
 1509               		.loc 1 455 11 is_stmt 1 view .LVU416
 456:main.c        ****           }
 1510               		.loc 1 456 13 view .LVU417
 456:main.c        ****           }
 1511               		.loc 1 456 28 is_stmt 0 view .LVU418
 1512 056a 81E8      		ldi r24,lo8(-127)
 1513               	.LVL102:
 456:main.c        ****           }
 1514               		.loc 1 456 28 view .LVU419
 1515 056c 00C0      		rjmp .L127
 1516               	.LVL103:
 1517               	.L68:
 440:main.c        ****         }
 1518               		.loc 1 440 11 is_stmt 1 view .LVU420
 440:main.c        ****         }
 1519               		.loc 1 440 24 is_stmt 0 view .LVU421
 1520 056e 877F      		andi r24,lo8(-9)
 1521 0570 00C0      		rjmp .L125
 1522               	.LVL104:
 1523               	.L70:
 458:main.c        ****           // value polling
 1524               		.loc 1 458 15 is_stmt 1 view .LVU422
 458:main.c        ****           // value polling
 1525               		.loc 1 458 18 is_stmt 0 view .LVU423
 1526 0572 82FF      		sbrs r24,2
 1527 0574 00C0      		rjmp .L75
 458:main.c        ****           // value polling
 1528               		.loc 1 458 38 discriminator 1 view .LVU424
 1529 0576 F801      		movw r30,r16
 1530 0578 8291      		ld r24,-Z
 1531 057a 6F01      		movw r12,r30
 1532 057c 8F15      		cp r24,r15
 1533 057e 01F0      		breq .L75
 460:main.c        ****             if (i&1){
 1534               		.loc 1 460 11 is_stmt 1 view .LVU425
 460:main.c        ****             if (i&1){
 1535               		.loc 1 460 14 is_stmt 0 view .LVU426
 1536 0580 D111      		cpse r29,__zero_reg__
 1537 0582 00C0      		rjmp .L76
 461:main.c        ****               pgmmode.cmd3 |= 8;
 1538               		.loc 1 461 13 is_stmt 1 view .LVU427
 462:main.c        ****             }else{
 1539               		.loc 1 462 22 is_stmt 0 view .LVU428
 1540 0584 8091 0000 		lds r24,pgmmode+6
 461:main.c        ****               pgmmode.cmd3 |= 8;
 1541               		.loc 1 461 16 view .LVU429
 1542 0588 B114      		cp r11, __zero_reg__
 1543 058a 01F0      		breq .L77
 462:main.c        ****             }else{
 1544               		.loc 1 462 15 is_stmt 1 view .LVU430
 462:main.c        ****             }else{
 1545               		.loc 1 462 28 is_stmt 0 view .LVU431
 1546 058c 8860      		ori r24,lo8(8)
 1547               	.L126:
 464:main.c        ****             }
 1548               		.loc 1 464 28 view .LVU432
 1549 058e 8093 0000 		sts pgmmode+6,r24
 1550               	.L76:
 1551 0592 88EC      		ldi r24,lo8(-56)
 1552 0594 A82E      		mov r10,r24
 1553               	.LVL105:
 1554               	.L78:
 467:main.c        ****             _delay_us(250);
 1555               		.loc 1 467 11 is_stmt 1 view .LVU433
 468:main.c        ****             tmp = spi_cmd(pgmmode.cmd3, pgmmode.address, 0);
 1556               		.loc 1 468 13 view .LVU434
 1557               	.LBB173:
 1558               	.LBI173:
 237:/opt/local/avr/include/util/delay.h **** {
 1559               		.loc 3 237 1 view .LVU435
 1560               	.LBB174:
 239:/opt/local/avr/include/util/delay.h **** #if __HAS_DELAY_CYCLES && defined(__OPTIMIZE__) \
 1561               		.loc 3 239 2 view .LVU436
 242:/opt/local/avr/include/util/delay.h **** 	extern void __builtin_avr_delay_cycles(uint32_t);
 1562               		.loc 3 242 2 view .LVU437
 243:/opt/local/avr/include/util/delay.h **** 	__tmp = ((F_CPU) / 1e6) * __us;
 1563               		.loc 3 243 2 view .LVU438
 244:/opt/local/avr/include/util/delay.h **** 
 1564               		.loc 3 244 2 view .LVU439
 254:/opt/local/avr/include/util/delay.h **** 	#endif
 1565               		.loc 3 254 3 view .LVU440
 1566               		.loc 3 257 2 view .LVU441
 1567 0596 87EE      		ldi r24,lo8(999)
 1568 0598 93E0      		ldi r25,hi8(999)
 1569 059a 0197      	1:	sbiw r24,1
 1570 059c 01F4      		brne 1b
 1571 059e 00C0      		rjmp .
 1572 05a0 0000      		nop
 1573               	.LVL106:
 1574               		.loc 3 257 2 is_stmt 0 view .LVU442
 1575               	.LBE174:
 1576               	.LBE173:
 469:main.c        ****           }while(tmp != *buffer && --loop);
 1577               		.loc 1 469 13 is_stmt 1 view .LVU443
 469:main.c        ****           }while(tmp != *buffer && --loop);
 1578               		.loc 1 469 19 is_stmt 0 view .LVU444
 1579 05a2 6091 0000 		lds r22,pgmmode+9
 1580 05a6 7091 0000 		lds r23,pgmmode+9+1
 1581 05aa 40E0      		ldi r20,0
 1582 05ac 8091 0000 		lds r24,pgmmode+6
 1583 05b0 0E94 0000 		call spi_cmd
 1584               	.LVL107:
 470:main.c        **** 
 1585               		.loc 1 470 33 is_stmt 1 discriminator 2 view .LVU445
 1586 05b4 F601      		movw r30,r12
 1587 05b6 9081      		ld r25,Z
 1588 05b8 9817      		cp r25,r24
 1589 05ba 01F0      		breq .L74
 1590               	.LVL108:
 470:main.c        **** 
 1591               		.loc 1 470 33 is_stmt 0 discriminator 1 view .LVU446
 1592 05bc AA94      		dec r10
 1593               	.LVL109:
 470:main.c        **** 
 1594               		.loc 1 470 33 discriminator 1 view .LVU447
 1595 05be 01F4      		brne .L78
 472:main.c        ****             pgmmode.status = STATUS_CMD_TOUT;
 1596               		.loc 1 472 11 is_stmt 1 view .LVU448
 473:main.c        ****           }
 1597               		.loc 1 473 13 view .LVU449
 473:main.c        ****           }
 1598               		.loc 1 473 28 is_stmt 0 view .LVU450
 1599 05c0 80E8      		ldi r24,lo8(-128)
 1600               	.LVL110:
 1601               	.L127:
 456:main.c        ****           }
 1602               		.loc 1 456 28 view .LVU451
 1603 05c2 8093 0000 		sts pgmmode+17,r24
 1604 05c6 00C0      		rjmp .L74
 1605               	.LVL111:
 1606               	.L77:
 464:main.c        ****             }
 1607               		.loc 1 464 15 is_stmt 1 view .LVU452
 464:main.c        ****             }
 1608               		.loc 1 464 28 is_stmt 0 view .LVU453
 1609 05c8 877F      		andi r24,lo8(-9)
 1610 05ca 00C0      		rjmp .L126
 1611               	.L75:
 476:main.c        ****         }
 1612               		.loc 1 476 11 is_stmt 1 view .LVU454
 1613 05cc 8091 0000 		lds r24,pgmmode+3
 1614 05d0 90E0      		ldi r25,0
 1615 05d2 0E94 0000 		call wait_ms
 1616               	.LVL112:
 1617               	.L74:
 485:main.c        ****         pgmmode.address++;
 1618               		.loc 1 485 7 view .LVU455
 485:main.c        ****         pgmmode.address++;
 1619               		.loc 1 485 18 is_stmt 0 discriminator 1 view .LVU456
 1620 05d6 8D2F      		mov r24,r29
 1621 05d8 8B29      		or r24,r11
 1622 05da 8115      		cp r24, __zero_reg__
 1623 05dc 01F0      		breq .L79
 486:main.c        ****       }
 1624               		.loc 1 486 9 is_stmt 1 view .LVU457
 486:main.c        ****       }
 1625               		.loc 1 486 24 is_stmt 0 view .LVU458
 1626 05de 8091 0000 		lds r24,pgmmode+9
 1627 05e2 9091 0000 		lds r25,pgmmode+9+1
 1628 05e6 A091 0000 		lds r26,pgmmode+9+2
 1629 05ea B091 0000 		lds r27,pgmmode+9+3
 1630 05ee 0196      		adiw r24,1
 1631 05f0 A11D      		adc r26,__zero_reg__
 1632 05f2 B11D      		adc r27,__zero_reg__
 1633 05f4 8093 0000 		sts pgmmode+9,r24
 1634 05f8 9093 0000 		sts pgmmode+9+1,r25
 1635 05fc A093 0000 		sts pgmmode+9+2,r26
 1636 0600 B093 0000 		sts pgmmode+9+3,r27
 1637               	.L79:
 430:main.c        ****       if (pgmmode.large_flash && (pgmmode.address >> 16) != pgmmode.ext_address){
 1638               		.loc 1 430 35 is_stmt 1 discriminator 2 view .LVU459
 430:main.c        ****       if (pgmmode.large_flash && (pgmmode.address >> 16) != pgmmode.ext_address){
 1639               		.loc 1 430 33 is_stmt 0 discriminator 2 view .LVU460
 1640 0604 E394      		inc r14
 1641               	.LVL113:
 430:main.c        ****       if (pgmmode.large_flash && (pgmmode.address >> 16) != pgmmode.ext_address){
 1642               		.loc 1 430 33 discriminator 2 view .LVU461
 1643 0606 00C0      		rjmp .L65
 1644               	.LVL114:
 1645               	.L69:
 479:main.c        ****           pgmmode.poll_address = pgmmode.address;
 1646               		.loc 1 479 9 is_stmt 1 view .LVU462
 479:main.c        ****           pgmmode.poll_address = pgmmode.address;
 1647               		.loc 1 479 13 is_stmt 0 view .LVU463
 1648 0608 F801      		movw r30,r16
 479:main.c        ****           pgmmode.poll_address = pgmmode.address;
 1649               		.loc 1 479 12 view .LVU464
 1650 060a 8291      		ld r24,-Z
 1651 060c 8F15      		cp r24,r15
 1652 060e 01F0      		breq .L74
 479:main.c        ****           pgmmode.poll_address = pgmmode.address;
 1653               		.loc 1 479 32 discriminator 1 view .LVU465
 1654 0610 9091 0000 		lds r25,pgmmode+20
 479:main.c        ****           pgmmode.poll_address = pgmmode.address;
 1655               		.loc 1 479 29 discriminator 1 view .LVU466
 1656 0614 90FD      		sbrc r25,0
 1657 0616 00C0      		rjmp .L74
 480:main.c        ****           pgmmode.poll_address_odd = i&1; 
 1658               		.loc 1 480 11 is_stmt 1 view .LVU467
 480:main.c        ****           pgmmode.poll_address_odd = i&1; 
 1659               		.loc 1 480 32 is_stmt 0 view .LVU468
 1660 0618 2091 0000 		lds r18,pgmmode+9
 1661 061c 3091 0000 		lds r19,pgmmode+9+1
 1662 0620 3093 0000 		sts pgmmode+18+1,r19
 1663 0624 2093 0000 		sts pgmmode+18,r18
 481:main.c        ****           pgmmode.poll_address_valid = 1;
 1664               		.loc 1 481 11 is_stmt 1 view .LVU469
 482:main.c        ****         }
 1665               		.loc 1 482 11 view .LVU470
 482:main.c        ****         }
 1666               		.loc 1 482 38 is_stmt 0 view .LVU471
 1667 0628 E0FA      		bst r14,0
 1668 062a 8827      		clr r24
 1669 062c 81F9      		bld r24,1
 1670 062e 8160      		ori r24,lo8(1)
 1671 0630 9C7F      		andi r25,lo8(-4)
 1672 0632 892B      		or r24,r25
 1673 0634 8093 0000 		sts pgmmode+20,r24
 1674 0638 00C0      		rjmp .L74
 1675               	.LVL115:
 1676               	.L84:
 507:main.c        ****           // value polling
 1677               		.loc 1 507 15 is_stmt 1 view .LVU472
 507:main.c        ****           // value polling
 1678               		.loc 1 507 18 is_stmt 0 view .LVU473
 1679 063a 85FF      		sbrs r24,5
 1680 063c 00C0      		rjmp .L88
 507:main.c        ****           // value polling
 1681               		.loc 1 507 41 discriminator 1 view .LVU474
 1682 063e 9091 0000 		lds r25,pgmmode+20
 1683 0642 90FF      		sbrs r25,0
 1684 0644 00C0      		rjmp .L88
 509:main.c        ****             if (pgmmode.poll_address_odd) {
 1685               		.loc 1 509 11 is_stmt 1 view .LVU475
 509:main.c        ****             if (pgmmode.poll_address_odd) {
 1686               		.loc 1 509 14 is_stmt 0 view .LVU476
 1687 0646 D111      		cpse r29,__zero_reg__
 1688 0648 00C0      		rjmp .L89
 510:main.c        ****               pgmmode.cmd3 |= 8;
 1689               		.loc 1 510 13 is_stmt 1 view .LVU477
 511:main.c        ****             }else{
 1690               		.loc 1 511 22 is_stmt 0 view .LVU478
 1691 064a 8091 0000 		lds r24,pgmmode+6
 510:main.c        ****               pgmmode.cmd3 |= 8;
 1692               		.loc 1 510 16 view .LVU479
 1693 064e 91FF      		sbrs r25,1
 1694 0650 00C0      		rjmp .L90
 511:main.c        ****             }else{
 1695               		.loc 1 511 15 is_stmt 1 view .LVU480
 511:main.c        ****             }else{
 1696               		.loc 1 511 28 is_stmt 0 view .LVU481
 1697 0652 8860      		ori r24,lo8(8)
 1698               	.L128:
 513:main.c        ****             }  
 1699               		.loc 1 513 28 view .LVU482
 1700 0654 8093 0000 		sts pgmmode+6,r24
 1701               	.L89:
 1702 0658 C8EC      		ldi r28,lo8(-56)
 1703               	.LVL116:
 1704               	.L91:
 516:main.c        ****             _delay_us(250);
 1705               		.loc 1 516 11 is_stmt 1 view .LVU483
 517:main.c        ****             tmp = spi_cmd(pgmmode.cmd3, pgmmode.poll_address, 0);
 1706               		.loc 1 517 13 view .LVU484
 1707               	.LBB175:
 1708               	.LBI175:
 237:/opt/local/avr/include/util/delay.h **** {
 1709               		.loc 3 237 1 view .LVU485
 1710               	.LBB176:
 239:/opt/local/avr/include/util/delay.h **** #if __HAS_DELAY_CYCLES && defined(__OPTIMIZE__) \
 1711               		.loc 3 239 2 view .LVU486
 242:/opt/local/avr/include/util/delay.h **** 	extern void __builtin_avr_delay_cycles(uint32_t);
 1712               		.loc 3 242 2 view .LVU487
 243:/opt/local/avr/include/util/delay.h **** 	__tmp = ((F_CPU) / 1e6) * __us;
 1713               		.loc 3 243 2 view .LVU488
 244:/opt/local/avr/include/util/delay.h **** 
 1714               		.loc 3 244 2 view .LVU489
 254:/opt/local/avr/include/util/delay.h **** 	#endif
 1715               		.loc 3 254 3 view .LVU490
 1716               		.loc 3 257 2 view .LVU491
 1717 065a E7EE      		ldi r30,lo8(999)
 1718 065c F3E0      		ldi r31,hi8(999)
 1719 065e 3197      	1:	sbiw r30,1
 1720 0660 01F4      		brne 1b
 1721 0662 00C0      		rjmp .
 1722 0664 0000      		nop
 1723               	.LVL117:
 1724               		.loc 3 257 2 is_stmt 0 view .LVU492
 1725               	.LBE176:
 1726               	.LBE175:
 518:main.c        ****           }while(tmp == poll && --loop);
 1727               		.loc 1 518 13 is_stmt 1 view .LVU493
 518:main.c        ****           }while(tmp == poll && --loop);
 1728               		.loc 1 518 19 is_stmt 0 view .LVU494
 1729 0666 6091 0000 		lds r22,pgmmode+18
 1730 066a 7091 0000 		lds r23,pgmmode+18+1
 1731 066e 40E0      		ldi r20,0
 1732 0670 8091 0000 		lds r24,pgmmode+6
 1733 0674 0E94 0000 		call spi_cmd
 1734               	.LVL118:
 519:main.c        **** 
 1735               		.loc 1 519 30 is_stmt 1 discriminator 2 view .LVU495
 1736 0678 F812      		cpse r15,r24
 1737 067a 00C0      		rjmp .L83
 1738               	.LVL119:
 519:main.c        **** 
 1739               		.loc 1 519 30 is_stmt 0 discriminator 1 view .LVU496
 1740 067c CA95      		dec r28
 1741               	.LVL120:
 519:main.c        **** 
 1742               		.loc 1 519 30 discriminator 1 view .LVU497
 1743 067e 01F4      		brne .L91
 521:main.c        ****             pgmmode.status = STATUS_CMD_TOUT;
 1744               		.loc 1 521 11 is_stmt 1 view .LVU498
 522:main.c        ****           }
 1745               		.loc 1 522 13 view .LVU499
 522:main.c        ****           }
 1746               		.loc 1 522 28 is_stmt 0 view .LVU500
 1747 0680 80E8      		ldi r24,lo8(-128)
 1748               	.LVL121:
 1749               	.L129:
 505:main.c        ****           }
 1750               		.loc 1 505 28 view .LVU501
 1751 0682 8093 0000 		sts pgmmode+17,r24
 1752 0686 00C0      		rjmp .L83
 1753               	.LVL122:
 1754               	.L90:
 513:main.c        ****             }  
 1755               		.loc 1 513 15 is_stmt 1 view .LVU502
 513:main.c        ****             }  
 1756               		.loc 1 513 28 is_stmt 0 view .LVU503
 1757 0688 877F      		andi r24,lo8(-9)
 1758 068a 00C0      		rjmp .L128
 1759               	.L88:
 526:main.c        ****         }
 1760               		.loc 1 526 11 is_stmt 1 view .LVU504
 1761 068c 8091 0000 		lds r24,pgmmode+3
 1762 0690 90E0      		ldi r25,0
 1763 0692 0E94 0000 		call wait_ms
 1764               	.LVL123:
 1765               	.L83:
 529:main.c        ****       answer[1] = pgmmode.status;
 1766               		.loc 1 529 7 view .LVU505
 529:main.c        ****       answer[1] = pgmmode.status;
 1767               		.loc 1 529 17 is_stmt 0 discriminator 1 view .LVU506
 1768 0696 85E1      		ldi r24,lo8(21)
 529:main.c        ****       answer[1] = pgmmode.status;
 1769               		.loc 1 529 17 view .LVU507
 1770 0698 D111      		cpse r29,__zero_reg__
 1771 069a 00C0      		rjmp .L92
 529:main.c        ****       answer[1] = pgmmode.status;
 1772               		.loc 1 529 17 discriminator 2 view .LVU508
 1773 069c 83E1      		ldi r24,lo8(19)
 1774               	.L92:
 529:main.c        ****       answer[1] = pgmmode.status;
 1775               		.loc 1 529 17 discriminator 4 view .LVU509
 1776 069e 8093 0000 		sts answer,r24
 530:main.c        ****       pgmmode.status = STATUS_CMD_OK;
 1777               		.loc 1 530 7 is_stmt 1 view .LVU510
 530:main.c        ****       pgmmode.status = STATUS_CMD_OK;
 1778               		.loc 1 530 26 is_stmt 0 view .LVU511
 1779 06a2 8091 0000 		lds r24,pgmmode+17
 530:main.c        ****       pgmmode.status = STATUS_CMD_OK;
 1780               		.loc 1 530 17 view .LVU512
 1781 06a6 8093 0000 		sts answer+1,r24
 1782 06aa 00C0      		rjmp .L130
 1783               	.LVL124:
 1784               	.L51:
 1785               	/* epilogue start */
 530:main.c        ****       pgmmode.status = STATUS_CMD_OK;
 1786               		.loc 1 530 17 view .LVU513
 1787               	.LBE179:
 536:main.c        **** 
 1788               		.loc 1 536 1 view .LVU514
 1789 06ac DF91      		pop r29
 1790               	.LVL125:
 536:main.c        **** 
 1791               		.loc 1 536 1 view .LVU515
 1792 06ae CF91      		pop r28
 1793               	.LVL126:
 536:main.c        **** 
 1794               		.loc 1 536 1 view .LVU516
 1795 06b0 1F91      		pop r17
 1796 06b2 0F91      		pop r16
 1797               	.LVL127:
 536:main.c        **** 
 1798               		.loc 1 536 1 view .LVU517
 1799 06b4 FF90      		pop r15
 1800 06b6 EF90      		pop r14
 1801 06b8 DF90      		pop r13
 1802 06ba CF90      		pop r12
 1803 06bc BF90      		pop r11
 1804 06be AF90      		pop r10
 1805 06c0 0895      		ret
 1806               		.cfi_endproc
 1807               	.LFE80:
 1809               	.global	cmd_enter_progmode
 1811               	cmd_enter_progmode:
 1812               	.LVL128:
 1813               	.LFB84:
 612:main.c        **** 
 613:main.c        **** /** Enter ISP programming mode
 614:main.c        ****  */
 615:main.c        **** void cmd_enter_progmode(struct cmd_enter_progmode_s *cmd) {
 1814               		.loc 1 615 59 is_stmt 1 view -0
 1815               		.cfi_startproc
 1816               		.loc 1 615 59 is_stmt 0 view .LVU519
 1817 06c2 EF92      		push r14
 1818               		.cfi_def_cfa_offset 3
 1819               		.cfi_offset 14, -2
 1820 06c4 FF92      		push r15
 1821               		.cfi_def_cfa_offset 4
 1822               		.cfi_offset 15, -3
 1823 06c6 0F93      		push r16
 1824               		.cfi_def_cfa_offset 5
 1825               		.cfi_offset 16, -4
 1826 06c8 1F93      		push r17
 1827               		.cfi_def_cfa_offset 6
 1828               		.cfi_offset 17, -5
 1829 06ca CF93      		push r28
 1830               		.cfi_def_cfa_offset 7
 1831               		.cfi_offset 28, -6
 1832 06cc DF93      		push r29
 1833               		.cfi_def_cfa_offset 8
 1834               		.cfi_offset 29, -7
 1835               	/* prologue: function */
 1836               	/* frame size = 0 */
 1837               	/* stack size = 6 */
 1838               	.L__stack_usage = 6
 1839 06ce EC01      		movw r28,r24
 616:main.c        ****   #if DEBUG_ON
 617:main.c        ****   UARTWrite("enter\r\n");
 618:main.c        ****   #endif
 619:main.c        ****   #if DEBUG_ON
 620:main.c        ****   int i;
 621:main.c        ****   for (i=0;i<12;i++) {
 622:main.c        ****     SendHex(*((char *)cmd+i));
 623:main.c        ****     UARTPutChar(' ');
 624:main.c        ****   }
 625:main.c        ****   SendHex(cmd->cmd1);
 626:main.c        ****   #endif
 627:main.c        ****   pgmmode.address = 0;
 1840               		.loc 1 627 3 is_stmt 1 view .LVU520
 1841               		.loc 1 627 19 is_stmt 0 view .LVU521
 1842 06d0 1092 0000 		sts pgmmode+9,__zero_reg__
 1843 06d4 1092 0000 		sts pgmmode+9+1,__zero_reg__
 1844 06d8 1092 0000 		sts pgmmode+9+2,__zero_reg__
 1845 06dc 1092 0000 		sts pgmmode+9+3,__zero_reg__
 628:main.c        ****   pgmmode.status = STATUS_CMD_OK;
 1846               		.loc 1 628 3 is_stmt 1 view .LVU522
 1847               		.loc 1 628 18 is_stmt 0 view .LVU523
 1848 06e0 1092 0000 		sts pgmmode+17,__zero_reg__
 629:main.c        ****   pgmmode.ext_address = 0xffff;
 1849               		.loc 1 629 3 is_stmt 1 view .LVU524
 630:main.c        ****   pgmmode.large_flash = 0;
 1850               		.loc 1 630 3 view .LVU525
 631:main.c        ****   pgmmode.poll_address_valid = 0;
 1851               		.loc 1 631 3 view .LVU526
 1852               		.loc 1 631 30 is_stmt 0 view .LVU527
 1853 06e4 8091 0000 		lds r24,pgmmode+20
 1854               	.LVL129:
 1855               		.loc 1 631 30 view .LVU528
 1856 06e8 8A7F      		andi r24,lo8(-6)
 1857 06ea 8093 0000 		sts pgmmode+20,r24
 629:main.c        ****   pgmmode.ext_address = 0xffff;
 1858               		.loc 1 629 23 view .LVU529
 1859 06ee 8FEF      		ldi r24,lo8(-1)
 1860 06f0 9FEF      		ldi r25,lo8(-1)
 1861 06f2 9093 0000 		sts pgmmode+21+1,r25
 1862 06f6 8093 0000 		sts pgmmode+21,r24
 632:main.c        ****   spi_active();
 1863               		.loc 1 632 3 is_stmt 1 view .LVU530
 1864 06fa 0E94 0000 		call spi_active
 1865               	.LVL130:
 633:main.c        ****   LED_on;
 1866               		.loc 1 633 3 view .LVU531
 1867 06fe DC9A      		sbi 0x1b,4
 634:main.c        **** 
 635:main.c        ****   PORTB &= ~(1<<SCK);
 1868               		.loc 1 635 3 view .LVU532
 1869               		.loc 1 635 9 is_stmt 0 view .LVU533
 1870 0700 C798      		cbi 0x18,7
 636:main.c        **** 
 637:main.c        ****   if(usbprog.reset_pol==1)
 1871               		.loc 1 637 3 is_stmt 1 view .LVU534
 1872               		.loc 1 637 13 is_stmt 0 view .LVU535
 1873 0702 8091 0000 		lds r24,usbprog+13
 1874 0706 9091 0000 		lds r25,usbprog+13+1
 1875               		.loc 1 637 5 view .LVU536
 1876 070a 0197      		sbiw r24,1
 1877 070c 01F4      		brne .L132
 638:main.c        ****   {
 639:main.c        ****     PORTB &= ~(1<<RESET_PIN);
 1878               		.loc 1 639 5 is_stmt 1 view .LVU537
 1879               		.loc 1 639 11 is_stmt 0 view .LVU538
 1880 070e C098      		cbi 0x18,0
 640:main.c        ****     wait_ms(10);
 1881               		.loc 1 640 5 is_stmt 1 view .LVU539
 1882 0710 8AE0      		ldi r24,lo8(10)
 1883 0712 90E0      		ldi r25,0
 1884 0714 0E94 0000 		call wait_ms
 1885               	.LVL131:
 641:main.c        ****     PORTB |= (1<<RESET_PIN);  // give reset a positive pulse
 1886               		.loc 1 641 5 view .LVU540
 1887               		.loc 1 641 11 is_stmt 0 view .LVU541
 1888 0718 C09A      		sbi 0x18,0
 642:main.c        ****     wait_ms(10);
 1889               		.loc 1 642 5 is_stmt 1 view .LVU542
 1890 071a 8AE0      		ldi r24,lo8(10)
 1891 071c 90E0      		ldi r25,0
 1892 071e 0E94 0000 		call wait_ms
 1893               	.LVL132:
 643:main.c        ****     PORTB &= ~(1<<RESET_PIN);
 1894               		.loc 1 643 5 view .LVU543
 1895               		.loc 1 643 11 is_stmt 0 view .LVU544
 1896 0722 C098      		cbi 0x18,0
 644:main.c        ****     wait_ms(10);
 1897               		.loc 1 644 5 is_stmt 1 view .LVU545
 1898               	.L140:
 645:main.c        ****     
 646:main.c        ****     #ifdef AT89MODE 
 647:main.c        ****     PORTB |= (1<<RESET_PIN);  // give reset a positive pulse
 648:main.c        ****     wait_ms(10);
 649:main.c        ****     #endif
 650:main.c        ****   }
 651:main.c        ****   else
 652:main.c        ****   {
 653:main.c        ****     PORTB |= (1<<RESET_PIN);  // give reset a positive pulse
 654:main.c        ****     wait_ms(10);
 655:main.c        ****     PORTB &= ~(1<<RESET_PIN);
 656:main.c        ****     wait_ms(10);
 657:main.c        ****     PORTB |= (1<<RESET_PIN);  // give reset a positive pulse
 658:main.c        ****     wait_ms(10);
 1899               		.loc 1 658 5 view .LVU546
 1900 0724 8AE0      		ldi r24,lo8(10)
 1901 0726 90E0      		ldi r25,0
 1902 0728 0E94 0000 		call wait_ms
 1903               	.LVL133:
 659:main.c        ****   }
 660:main.c        **** 
 661:main.c        ****   answer[0] = CMD_ENTER_PROGMODE_ISP;
 1904               		.loc 1 661 3 view .LVU547
 1905               		.loc 1 661 13 is_stmt 0 view .LVU548
 1906 072c 80E1      		ldi r24,lo8(16)
 1907 072e 8093 0000 		sts answer,r24
 662:main.c        **** 
 663:main.c        ****   wait_ms(cmd->cmdexedelay);
 1908               		.loc 1 663 3 is_stmt 1 view .LVU549
 1909 0732 8B81      		ldd r24,Y+3
 1910 0734 90E0      		ldi r25,0
 1911 0736 0E94 0000 		call wait_ms
 1912               	.LVL134:
 664:main.c        **** 
 665:main.c        ****   int syncloops = cmd->synchloops;
 1913               		.loc 1 665 3 view .LVU550
 1914               		.loc 1 665 7 is_stmt 0 view .LVU551
 1915 073a 0C81      		ldd r16,Y+4
 1916 073c 10E0      		ldi r17,0
 1917               	.LVL135:
 666:main.c        ****   unsigned char result3,result4;
 1918               		.loc 1 666 3 is_stmt 1 view .LVU552
 667:main.c        ****   for (;syncloops > 0; syncloops--) {
 1919               		.loc 1 667 3 view .LVU553
 1920               	.L134:
 1921               		.loc 1 667 19 discriminator 1 view .LVU554
 1922 073e 0115      		cp r16,__zero_reg__
 1923 0740 1105      		cpc r17,__zero_reg__
 1924 0742 01F4      		brne .L139
 668:main.c        ****     spi_out(cmd->cmd1);
 669:main.c        ****     wait_ms(cmd->bytedelay);
 670:main.c        ****     spi_out(cmd->cmd2);
 671:main.c        ****     wait_ms(cmd->bytedelay);
 672:main.c        ****     result3 = spi_inout(cmd->cmd3);
 673:main.c        ****     wait_ms(cmd->bytedelay);
 674:main.c        ****     result4 = spi_inout(cmd->cmd4);
 675:main.c        ****     wait_ms(cmd->bytedelay);
 676:main.c        **** 
 677:main.c        ****     if ((cmd->pollindex==0) ||
 678:main.c        ****         ((cmd->pollindex==3) && (result3==cmd->pollvalue)) ||
 679:main.c        ****         ((cmd->pollindex==4) && (result4==cmd->pollvalue))) {
 680:main.c        ****       answer[1] = STATUS_CMD_OK;
 681:main.c        ****       CommandAnswer(2);
 682:main.c        ****       return;
 683:main.c        ****     }
 684:main.c        **** 
 685:main.c        ****     //Apparently, we're not in sync. Pulse SCK once to get in sync
 686:main.c        ****     #if DEBUG_ON
 687:main.c        ****     UARTPutChar('#');
 688:main.c        ****     #endif
 689:main.c        ****     spi_pulseclockonce();
 690:main.c        ****   };
 1925               		.loc 1 690 4 view .LVU555
 691:main.c        **** 
 692:main.c        ****   answer[1] = STATUS_CMD_FAILED;
 1926               		.loc 1 692 3 view .LVU556
 1927               		.loc 1 692 13 is_stmt 0 view .LVU557
 1928 0744 80EC      		ldi r24,lo8(-64)
 1929 0746 8093 0000 		sts answer+1,r24
 1930 074a 00C0      		rjmp .L143
 1931               	.LVL136:
 1932               	.L132:
 653:main.c        ****     wait_ms(10);
 1933               		.loc 1 653 5 is_stmt 1 view .LVU558
 653:main.c        ****     wait_ms(10);
 1934               		.loc 1 653 11 is_stmt 0 view .LVU559
 1935 074c C09A      		sbi 0x18,0
 654:main.c        ****     PORTB &= ~(1<<RESET_PIN);
 1936               		.loc 1 654 5 is_stmt 1 view .LVU560
 1937 074e 8AE0      		ldi r24,lo8(10)
 1938 0750 90E0      		ldi r25,0
 1939 0752 0E94 0000 		call wait_ms
 1940               	.LVL137:
 655:main.c        ****     wait_ms(10);
 1941               		.loc 1 655 5 view .LVU561
 655:main.c        ****     wait_ms(10);
 1942               		.loc 1 655 11 is_stmt 0 view .LVU562
 1943 0756 C098      		cbi 0x18,0
 656:main.c        ****     PORTB |= (1<<RESET_PIN);  // give reset a positive pulse
 1944               		.loc 1 656 5 is_stmt 1 view .LVU563
 1945 0758 8AE0      		ldi r24,lo8(10)
 1946 075a 90E0      		ldi r25,0
 1947 075c 0E94 0000 		call wait_ms
 1948               	.LVL138:
 657:main.c        ****     wait_ms(10);
 1949               		.loc 1 657 5 view .LVU564
 657:main.c        ****     wait_ms(10);
 1950               		.loc 1 657 11 is_stmt 0 view .LVU565
 1951 0760 C09A      		sbi 0x18,0
 1952 0762 00C0      		rjmp .L140
 1953               	.LVL139:
 1954               	.L139:
 668:main.c        ****     wait_ms(cmd->bytedelay);
 1955               		.loc 1 668 5 is_stmt 1 view .LVU566
 1956               	.LBB180:
 1957               	.LBI180:
 351:main.c        ****   spi_inout(data);
 1958               		.loc 1 351 6 view .LVU567
 1959               	.LBB181:
 352:main.c        **** }
 1960               		.loc 1 352 3 view .LVU568
 1961 0764 8885      		ldd r24,Y+8
 1962 0766 0E94 0000 		call spi_inout
 1963               	.LVL140:
 352:main.c        **** }
 1964               		.loc 1 352 3 is_stmt 0 view .LVU569
 1965               	.LBE181:
 1966               	.LBE180:
 669:main.c        ****     spi_out(cmd->cmd2);
 1967               		.loc 1 669 5 is_stmt 1 view .LVU570
 1968 076a 8D81      		ldd r24,Y+5
 1969 076c 90E0      		ldi r25,0
 1970 076e 0E94 0000 		call wait_ms
 1971               	.LVL141:
 670:main.c        ****     wait_ms(cmd->bytedelay);
 1972               		.loc 1 670 5 view .LVU571
 1973               	.LBB182:
 1974               	.LBI182:
 351:main.c        ****   spi_inout(data);
 1975               		.loc 1 351 6 view .LVU572
 1976               	.LBB183:
 352:main.c        **** }
 1977               		.loc 1 352 3 view .LVU573
 1978 0772 8985      		ldd r24,Y+9
 1979 0774 0E94 0000 		call spi_inout
 1980               	.LVL142:
 352:main.c        **** }
 1981               		.loc 1 352 3 is_stmt 0 view .LVU574
 1982               	.LBE183:
 1983               	.LBE182:
 671:main.c        ****     result3 = spi_inout(cmd->cmd3);
 1984               		.loc 1 671 5 is_stmt 1 view .LVU575
 1985 0778 8D81      		ldd r24,Y+5
 1986 077a 90E0      		ldi r25,0
 1987 077c 0E94 0000 		call wait_ms
 1988               	.LVL143:
 672:main.c        ****     wait_ms(cmd->bytedelay);
 1989               		.loc 1 672 5 view .LVU576
 672:main.c        ****     wait_ms(cmd->bytedelay);
 1990               		.loc 1 672 15 is_stmt 0 view .LVU577
 1991 0780 8A85      		ldd r24,Y+10
 1992 0782 0E94 0000 		call spi_inout
 1993               	.LVL144:
 1994 0786 E82E      		mov r14,r24
 1995               	.LVL145:
 673:main.c        ****     result4 = spi_inout(cmd->cmd4);
 1996               		.loc 1 673 5 is_stmt 1 view .LVU578
 1997 0788 8D81      		ldd r24,Y+5
 1998 078a 90E0      		ldi r25,0
 1999 078c 0E94 0000 		call wait_ms
 2000               	.LVL146:
 674:main.c        ****     wait_ms(cmd->bytedelay);
 2001               		.loc 1 674 5 view .LVU579
 674:main.c        ****     wait_ms(cmd->bytedelay);
 2002               		.loc 1 674 15 is_stmt 0 view .LVU580
 2003 0790 8B85      		ldd r24,Y+11
 2004 0792 0E94 0000 		call spi_inout
 2005               	.LVL147:
 2006 0796 F82E      		mov r15,r24
 2007               	.LVL148:
 675:main.c        **** 
 2008               		.loc 1 675 5 is_stmt 1 view .LVU581
 2009 0798 8D81      		ldd r24,Y+5
 2010 079a 90E0      		ldi r25,0
 2011 079c 0E94 0000 		call wait_ms
 2012               	.LVL149:
 677:main.c        ****         ((cmd->pollindex==3) && (result3==cmd->pollvalue)) ||
 2013               		.loc 1 677 5 view .LVU582
 677:main.c        ****         ((cmd->pollindex==3) && (result3==cmd->pollvalue)) ||
 2014               		.loc 1 677 13 is_stmt 0 view .LVU583
 2015 07a0 9F81      		ldd r25,Y+7
 677:main.c        ****         ((cmd->pollindex==3) && (result3==cmd->pollvalue)) ||
 2016               		.loc 1 677 8 view .LVU584
 2017 07a2 9111      		cpse r25,__zero_reg__
 2018 07a4 00C0      		rjmp .L135
 2019               	.L137:
 680:main.c        ****       CommandAnswer(2);
 2020               		.loc 1 680 7 is_stmt 1 view .LVU585
 680:main.c        ****       CommandAnswer(2);
 2021               		.loc 1 680 17 is_stmt 0 view .LVU586
 2022 07a6 1092 0000 		sts answer+1,__zero_reg__
 681:main.c        ****       return;
 2023               		.loc 1 681 7 is_stmt 1 view .LVU587
 2024               	.LVL150:
 2025               	.L143:
 693:main.c        ****   CommandAnswer(2);
 2026               		.loc 1 693 3 view .LVU588
 2027 07aa 82E0      		ldi r24,lo8(2)
 2028               	/* epilogue start */
 694:main.c        ****   return;
 695:main.c        **** }
 2029               		.loc 1 695 1 is_stmt 0 view .LVU589
 2030 07ac DF91      		pop r29
 2031 07ae CF91      		pop r28
 2032               	.LVL151:
 2033               		.loc 1 695 1 view .LVU590
 2034 07b0 1F91      		pop r17
 2035 07b2 0F91      		pop r16
 2036               	.LVL152:
 2037               		.loc 1 695 1 view .LVU591
 2038 07b4 FF90      		pop r15
 2039 07b6 EF90      		pop r14
 693:main.c        ****   CommandAnswer(2);
 2040               		.loc 1 693 3 view .LVU592
 2041 07b8 0C94 0000 		jmp CommandAnswer
 2042               	.LVL153:
 2043               	.L135:
 677:main.c        ****         ((cmd->pollindex==3) && (result3==cmd->pollvalue)) ||
 2044               		.loc 1 677 29 discriminator 1 view .LVU593
 2045 07bc 9330      		cpi r25,lo8(3)
 2046 07be 01F4      		brne .L136
 678:main.c        ****         ((cmd->pollindex==4) && (result4==cmd->pollvalue))) {
 2047               		.loc 1 678 30 view .LVU594
 2048 07c0 8E81      		ldd r24,Y+6
 2049 07c2 8E15      		cp r24,r14
 2050               	.L142:
 679:main.c        ****       answer[1] = STATUS_CMD_OK;
 2051               		.loc 1 679 30 view .LVU595
 2052 07c4 01F0      		breq .L137
 2053               	.L138:
 689:main.c        ****   };
 2054               		.loc 1 689 5 is_stmt 1 view .LVU596
 2055 07c6 0E94 0000 		call spi_pulseclockonce
 2056               	.LVL154:
 667:main.c        ****     spi_out(cmd->cmd1);
 2057               		.loc 1 667 33 view .LVU597
 2058 07ca 0150      		subi r16,1
 2059 07cc 1109      		sbc r17,__zero_reg__
 2060               	.LVL155:
 667:main.c        ****     spi_out(cmd->cmd1);
 2061               		.loc 1 667 33 is_stmt 0 view .LVU598
 2062 07ce 00C0      		rjmp .L134
 2063               	.LVL156:
 2064               	.L136:
 678:main.c        ****         ((cmd->pollindex==4) && (result4==cmd->pollvalue))) {
 2065               		.loc 1 678 60 discriminator 1 view .LVU599
 2066 07d0 9430      		cpi r25,lo8(4)
 2067 07d2 01F4      		brne .L138
 679:main.c        ****       answer[1] = STATUS_CMD_OK;
 2068               		.loc 1 679 30 view .LVU600
 2069 07d4 8E81      		ldd r24,Y+6
 2070 07d6 8F15      		cp r24,r15
 2071 07d8 00C0      		rjmp .L142
 2072               		.cfi_endproc
 2073               	.LFE84:
 2075               	.global	cmd_spi_multi
 2077               	cmd_spi_multi:
 2078               	.LVL157:
 2079               	.LFB85:
 696:main.c        **** 
 697:main.c        **** /** Send/receive multiple spi bytes
 698:main.c        ****  */
 699:main.c        **** void cmd_spi_multi(struct cmd_spi_multi_s *cmd) {
 2080               		.loc 1 699 49 is_stmt 1 view -0
 2081               		.cfi_startproc
 2082               		.loc 1 699 49 is_stmt 0 view .LVU602
 2083 07da CF92      		push r12
 2084               		.cfi_def_cfa_offset 3
 2085               		.cfi_offset 12, -2
 2086 07dc DF92      		push r13
 2087               		.cfi_def_cfa_offset 4
 2088               		.cfi_offset 13, -3
 2089 07de EF92      		push r14
 2090               		.cfi_def_cfa_offset 5
 2091               		.cfi_offset 14, -4
 2092 07e0 FF92      		push r15
 2093               		.cfi_def_cfa_offset 6
 2094               		.cfi_offset 15, -5
 2095 07e2 0F93      		push r16
 2096               		.cfi_def_cfa_offset 7
 2097               		.cfi_offset 16, -6
 2098 07e4 1F93      		push r17
 2099               		.cfi_def_cfa_offset 8
 2100               		.cfi_offset 17, -7
 2101 07e6 CF93      		push r28
 2102               		.cfi_def_cfa_offset 9
 2103               		.cfi_offset 28, -8
 2104 07e8 DF93      		push r29
 2105               		.cfi_def_cfa_offset 10
 2106               		.cfi_offset 29, -9
 2107               	/* prologue: function */
 2108               	/* frame size = 0 */
 2109               	/* stack size = 8 */
 2110               	.L__stack_usage = 8
 2111 07ea EC01      		movw r28,r24
 700:main.c        ****   char send,receive;
 2112               		.loc 1 700 3 is_stmt 1 view .LVU603
 701:main.c        ****   /*numsent *must* be int because char may overflow if numRx+rxStart
 702:main.c        ****     becomes too large to fit in char */
 703:main.c        **** 
 704:main.c        ****   int numsent=0,numrecv=0;
 2113               		.loc 1 704 3 view .LVU604
 2114               	.LVL158:
 705:main.c        ****   if (cmd->numTx>60||cmd->numRx>60) {
 2115               		.loc 1 705 3 view .LVU605
 2116               		.loc 1 705 6 is_stmt 0 view .LVU606
 2117 07ec 8981      		ldd r24,Y+1
 2118               	.LVL159:
 2119               		.loc 1 705 6 view .LVU607
 2120 07ee 8D33      		cpi r24,lo8(61)
 2121 07f0 00F4      		brsh .L145
 2122               		.loc 1 705 20 discriminator 1 view .LVU608
 2123 07f2 8A81      		ldd r24,Y+2
 2124 07f4 6E01      		movw r12,r28
 2125               	.LBB186:
 2126               	.LBB187:
 704:main.c        ****   if (cmd->numTx>60||cmd->numRx>60) {
 2127               		.loc 1 704 17 view .LVU609
 2128 07f6 00E0      		ldi r16,0
 2129 07f8 10E0      		ldi r17,0
 706:main.c        ****     //Not implemented
 707:main.c        ****     answer[0] = CMD_SPI_MULTI;
 708:main.c        ****     answer[1] = STATUS_CMD_UNKNOWN;
 709:main.c        ****     CommandAnswer(2);
 710:main.c        ****   } else {
 711:main.c        ****     for(numsent=0;(numsent<cmd->numTx)||(numrecv<cmd->numRx);numsent++) {
 2130               		.loc 1 711 16 view .LVU610
 2131 07fa E12C      		mov r14,__zero_reg__
 2132 07fc F12C      		mov r15,__zero_reg__
 2133               	.LBE187:
 2134               	.LBE186:
 705:main.c        ****     //Not implemented
 2135               		.loc 1 705 20 discriminator 1 view .LVU611
 2136 07fe 8D33      		cpi r24,lo8(61)
 2137 0800 00F0      		brlo .L146
 2138               	.L145:
 707:main.c        ****     answer[1] = STATUS_CMD_UNKNOWN;
 2139               		.loc 1 707 5 is_stmt 1 view .LVU612
 707:main.c        ****     answer[1] = STATUS_CMD_UNKNOWN;
 2140               		.loc 1 707 15 is_stmt 0 view .LVU613
 2141 0802 8DE1      		ldi r24,lo8(29)
 2142 0804 8093 0000 		sts answer,r24
 708:main.c        ****     CommandAnswer(2);
 2143               		.loc 1 708 5 is_stmt 1 view .LVU614
 708:main.c        ****     CommandAnswer(2);
 2144               		.loc 1 708 15 is_stmt 0 view .LVU615
 2145 0808 89EC      		ldi r24,lo8(-55)
 2146 080a 8093 0000 		sts answer+1,r24
 709:main.c        ****   } else {
 2147               		.loc 1 709 5 is_stmt 1 view .LVU616
 2148 080e 82E0      		ldi r24,lo8(2)
 2149               	.L151:
 2150               	/* epilogue start */
 712:main.c        ****       if (numsent<cmd->numTx) send=cmd->txData[numsent]; else send=0;
 713:main.c        ****       receive=spi_inout(send);
 714:main.c        ****       if (numsent>=cmd->rxStart) {
 715:main.c        ****         //past this point, the data received from the AVR must be
 716:main.c        ****         //sent to the USB
 717:main.c        ****         answer[numrecv+2]=receive;
 718:main.c        ****         numrecv++;
 719:main.c        ****       }
 720:main.c        ****     }
 721:main.c        ****     answer[0] = CMD_SPI_MULTI;
 722:main.c        ****     answer[1] = STATUS_CMD_OK;
 723:main.c        **** 
 724:main.c        ****     answer[numrecv+2] = STATUS_CMD_OK;
 725:main.c        ****     CommandAnswer(numrecv+3);
 726:main.c        ****   }
 727:main.c        **** 
 728:main.c        **** }
 2151               		.loc 1 728 1 is_stmt 0 view .LVU617
 2152 0810 DF91      		pop r29
 2153 0812 CF91      		pop r28
 2154               	.LVL160:
 2155               		.loc 1 728 1 view .LVU618
 2156 0814 1F91      		pop r17
 2157 0816 0F91      		pop r16
 2158 0818 FF90      		pop r15
 2159 081a EF90      		pop r14
 2160 081c DF90      		pop r13
 2161 081e CF90      		pop r12
 2162               	.LBB189:
 2163               	.LBB188:
 725:main.c        ****   }
 2164               		.loc 1 725 5 view .LVU619
 2165 0820 0C94 0000 		jmp CommandAnswer
 2166               	.LVL161:
 2167               	.L148:
 712:main.c        ****       if (numsent<cmd->numTx) send=cmd->txData[numsent]; else send=0;
 2168               		.loc 1 712 31 is_stmt 1 discriminator 1 view .LVU620
 712:main.c        ****       if (numsent<cmd->numTx) send=cmd->txData[numsent]; else send=0;
 2169               		.loc 1 712 35 is_stmt 0 discriminator 1 view .LVU621
 2170 0824 F601      		movw r30,r12
 2171 0826 8481      		ldd r24,Z+4
 2172               	.LVL162:
 2173               	.L149:
 713:main.c        ****       if (numsent>=cmd->rxStart) {
 2174               		.loc 1 713 7 is_stmt 1 view .LVU622
 713:main.c        ****       if (numsent>=cmd->rxStart) {
 2175               		.loc 1 713 15 is_stmt 0 view .LVU623
 2176 0828 0E94 0000 		call spi_inout
 2177               	.LVL163:
 714:main.c        ****         //past this point, the data received from the AVR must be
 2178               		.loc 1 714 7 is_stmt 1 view .LVU624
 714:main.c        ****         //past this point, the data received from the AVR must be
 2179               		.loc 1 714 23 is_stmt 0 view .LVU625
 2180 082c 9B81      		ldd r25,Y+3
 714:main.c        ****         //past this point, the data received from the AVR must be
 2181               		.loc 1 714 10 view .LVU626
 2182 082e E916      		cp r14,r25
 2183 0830 F104      		cpc r15,__zero_reg__
 2184 0832 04F0      		brlt .L147
 717:main.c        ****         numrecv++;
 2185               		.loc 1 717 9 is_stmt 1 view .LVU627
 717:main.c        ****         numrecv++;
 2186               		.loc 1 717 26 is_stmt 0 view .LVU628
 2187 0834 F801      		movw r30,r16
 2188 0836 E050      		subi r30,lo8(-(answer+2))
 2189 0838 F040      		sbci r31,hi8(-(answer+2))
 2190 083a 8083      		st Z,r24
 718:main.c        ****       }
 2191               		.loc 1 718 9 is_stmt 1 view .LVU629
 718:main.c        ****       }
 2192               		.loc 1 718 16 is_stmt 0 view .LVU630
 2193 083c 0F5F      		subi r16,-1
 2194 083e 1F4F      		sbci r17,-1
 2195               	.LVL164:
 2196               	.L147:
 711:main.c        ****       if (numsent<cmd->numTx) send=cmd->txData[numsent]; else send=0;
 2197               		.loc 1 711 69 is_stmt 1 discriminator 2 view .LVU631
 2198 0840 FFEF      		ldi r31,-1
 2199 0842 EF1A      		sub r14,r31
 2200 0844 FF0A      		sbc r15,r31
 2201               	.LVL165:
 711:main.c        ****       if (numsent<cmd->numTx) send=cmd->txData[numsent]; else send=0;
 2202               		.loc 1 711 69 is_stmt 0 discriminator 2 view .LVU632
 2203 0846 8FEF      		ldi r24,-1
 2204 0848 C81A      		sub r12,r24
 2205 084a D80A      		sbc r13,r24
 2206               	.LVL166:
 2207               	.L146:
 711:main.c        ****       if (numsent<cmd->numTx) send=cmd->txData[numsent]; else send=0;
 2208               		.loc 1 711 39 is_stmt 1 discriminator 1 view .LVU633
 711:main.c        ****       if (numsent<cmd->numTx) send=cmd->txData[numsent]; else send=0;
 2209               		.loc 1 711 31 is_stmt 0 discriminator 1 view .LVU634
 2210 084c 8981      		ldd r24,Y+1
 711:main.c        ****       if (numsent<cmd->numTx) send=cmd->txData[numsent]; else send=0;
 2211               		.loc 1 711 39 discriminator 1 view .LVU635
 2212 084e E816      		cp r14,r24
 2213 0850 F104      		cpc r15,__zero_reg__
 2214 0852 04F0      		brlt .L148
 711:main.c        ****       if (numsent<cmd->numTx) send=cmd->txData[numsent]; else send=0;
 2215               		.loc 1 711 53 discriminator 3 view .LVU636
 2216 0854 8A81      		ldd r24,Y+2
 711:main.c        ****       if (numsent<cmd->numTx) send=cmd->txData[numsent]; else send=0;
 2217               		.loc 1 711 39 discriminator 3 view .LVU637
 2218 0856 0817      		cp r16,r24
 2219 0858 1105      		cpc r17,__zero_reg__
 2220 085a 04F0      		brlt .L150
 721:main.c        ****     answer[1] = STATUS_CMD_OK;
 2221               		.loc 1 721 5 is_stmt 1 view .LVU638
 721:main.c        ****     answer[1] = STATUS_CMD_OK;
 2222               		.loc 1 721 15 is_stmt 0 view .LVU639
 2223 085c 8DE1      		ldi r24,lo8(29)
 2224 085e 8093 0000 		sts answer,r24
 722:main.c        **** 
 2225               		.loc 1 722 5 is_stmt 1 view .LVU640
 722:main.c        **** 
 2226               		.loc 1 722 15 is_stmt 0 view .LVU641
 2227 0862 1092 0000 		sts answer+1,__zero_reg__
 724:main.c        ****     CommandAnswer(numrecv+3);
 2228               		.loc 1 724 5 is_stmt 1 view .LVU642
 724:main.c        ****     CommandAnswer(numrecv+3);
 2229               		.loc 1 724 23 is_stmt 0 view .LVU643
 2230 0866 F801      		movw r30,r16
 2231 0868 E050      		subi r30,lo8(-(answer+2))
 2232 086a F040      		sbci r31,hi8(-(answer+2))
 2233 086c 1082      		st Z,__zero_reg__
 725:main.c        ****   }
 2234               		.loc 1 725 5 is_stmt 1 view .LVU644
 2235 086e 83E0      		ldi r24,lo8(3)
 2236 0870 800F      		add r24,r16
 2237 0872 00C0      		rjmp .L151
 2238               	.L150:
 712:main.c        ****       receive=spi_inout(send);
 2239               		.loc 1 712 67 is_stmt 0 discriminator 2 view .LVU645
 2240 0874 80E0      		ldi r24,0
 2241 0876 00C0      		rjmp .L149
 2242               	.LBE188:
 2243               	.LBE189:
 2244               		.cfi_endproc
 2245               	.LFE85:
 2247               	.global	USBFlash
 2249               	USBFlash:
 2250               	.LVL167:
 2251               	.LFB86:
 729:main.c        **** 
 730:main.c        **** 
 731:main.c        **** /* central command parser */
 732:main.c        **** void USBFlash(char *buf)
 733:main.c        **** {
 2252               		.loc 1 733 1 is_stmt 1 view -0
 2253               		.cfi_startproc
 2254               		.loc 1 733 1 is_stmt 0 view .LVU647
 2255 0878 EF92      		push r14
 2256               		.cfi_def_cfa_offset 3
 2257               		.cfi_offset 14, -2
 2258 087a FF92      		push r15
 2259               		.cfi_def_cfa_offset 4
 2260               		.cfi_offset 15, -3
 2261 087c 0F93      		push r16
 2262               		.cfi_def_cfa_offset 5
 2263               		.cfi_offset 16, -4
 2264 087e 1F93      		push r17
 2265               		.cfi_def_cfa_offset 6
 2266               		.cfi_offset 17, -5
 2267 0880 CF93      		push r28
 2268               		.cfi_def_cfa_offset 7
 2269               		.cfi_offset 28, -6
 2270 0882 DF93      		push r29
 2271               		.cfi_def_cfa_offset 8
 2272               		.cfi_offset 29, -7
 2273               	/* prologue: function */
 2274               	/* frame size = 0 */
 2275               	/* stack size = 6 */
 2276               	.L__stack_usage = 6
 2277 0884 EC01      		movw r28,r24
 734:main.c        ****   char result = 0;
 2278               		.loc 1 734 3 is_stmt 1 view .LVU648
 2279               	.LVL168:
 735:main.c        ****   int numbytes;
 2280               		.loc 1 735 3 view .LVU649
 736:main.c        ****   uint8_t *ptr;
 2281               		.loc 1 736 3 view .LVU650
 737:main.c        ****   int i;
 2282               		.loc 1 737 3 view .LVU651
 738:main.c        ****   
 739:main.c        ****   USBNWrite(TXC1, 0x00);
 2283               		.loc 1 739 3 view .LVU652
 2284 0886 60E0      		ldi r22,0
 2285 0888 8BE2      		ldi r24,lo8(43)
 2286               	.LVL169:
 2287               		.loc 1 739 3 is_stmt 0 view .LVU653
 2288 088a 0E94 0000 		call USBNWrite
 2289               	.LVL170:
 740:main.c        ****   
 741:main.c        ****   USBNWrite(TXC1, FLUSH);
 2290               		.loc 1 741 3 is_stmt 1 view .LVU654
 2291 088e 68E0      		ldi r22,lo8(8)
 2292 0890 8BE2      		ldi r24,lo8(43)
 2293 0892 0E94 0000 		call USBNWrite
 2294               	.LVL171:
 742:main.c        ****   // first see if this packet is expected by Flash or EEPROM programming
 743:main.c        ****   if(usbprog.longpackage) {
 2295               		.loc 1 743 3 view .LVU655
 2296               		.loc 1 743 13 is_stmt 0 view .LVU656
 2297 0896 8091 0000 		lds r24,usbprog+1
 2298 089a 9091 0000 		lds r25,usbprog+1+1
 2299               		.loc 1 743 5 view .LVU657
 2300 089e 892B      		or r24,r25
 2301 08a0 01F0      		breq .L153
 744:main.c        ****     #if DEBUG_ON
 745:main.c        ****     UARTWrite("USBFlash longpackage\r\n ");
 746:main.c        ****     #endif
 747:main.c        **** 
 748:main.c        ****     if(usbprog.lastcmd == CMD_PROGRAM_FLASH_ISP) {// last operation was flash programming
 2302               		.loc 1 748 5 is_stmt 1 view .LVU658
 2303               		.loc 1 748 15 is_stmt 0 view .LVU659
 2304 08a2 8091 0000 		lds r24,usbprog
 2305               		.loc 1 748 7 view .LVU660
 2306 08a6 8331      		cpi r24,lo8(19)
 2307 08a8 01F4      		brne .L154
 749:main.c        ****        program_fsm((uint8_t*)buf, 0);
 2308               		.loc 1 749 8 is_stmt 1 view .LVU661
 2309 08aa 60E0      		ldi r22,0
 2310 08ac CE01      		movw r24,r28
 2311 08ae 0E94 0000 		call program_fsm
 2312               	.LVL172:
 2313               	.L154:
 750:main.c        ****     }
 751:main.c        **** 
 752:main.c        ****     if(usbprog.lastcmd == CMD_PROGRAM_EEPROM_ISP) {// last operation was eeprom programming
 2314               		.loc 1 752 5 view .LVU662
 2315               		.loc 1 752 15 is_stmt 0 view .LVU663
 2316 08b2 8091 0000 		lds r24,usbprog
 2317               		.loc 1 752 7 view .LVU664
 2318 08b6 8531      		cpi r24,lo8(21)
 2319 08b8 01F0      		breq .+2
 2320 08ba 00C0      		rjmp .L152
 753:main.c        ****        program_fsm((uint8_t*)buf, 1);
 2321               		.loc 1 753 8 is_stmt 1 view .LVU665
 2322 08bc 61E0      		ldi r22,lo8(1)
 2323 08be CE01      		movw r24,r28
 2324               	/* epilogue start */
 754:main.c        ****     }
 755:main.c        ****     return;
 756:main.c        ****   }
 757:main.c        **** 
 758:main.c        ****   // if not, this is a command packet, we will decode here
 759:main.c        ****   else {
 760:main.c        ****     #if DEBUG_ON
 761:main.c        ****     UARTWrite("cmd ");
 762:main.c        ****     SendHex(buf[0]);
 763:main.c        ****     UARTWrite("cmd\r\n");
 764:main.c        ****     #endif
 765:main.c        **** 
 766:main.c        ****     usbprog.lastcmd = buf[0]; // store current command for later use
 767:main.c        ****     switch(buf[0]) {
 768:main.c        ****     
 769:main.c        ****     case CMD_SIGN_ON:
 770:main.c        **** 
 771:main.c        **** 
 772:main.c        ****       answer[0] = CMD_SIGN_ON;
 773:main.c        ****       answer[1] = STATUS_CMD_OK;
 774:main.c        ****       answer[2] = 10; // fixed length
 775:main.c        ****       answer[3] = 'A';
 776:main.c        ****       answer[4] = 'V';
 777:main.c        ****       answer[5] = 'R';
 778:main.c        ****       answer[6] = 'I';
 779:main.c        ****       answer[7] = 'S';
 780:main.c        ****       answer[8] = 'P';
 781:main.c        ****       answer[9] = '_';
 782:main.c        ****       answer[10] = 'M';
 783:main.c        ****       answer[11] = 'K';
 784:main.c        ****       answer[12] = '2';
 785:main.c        ****       CommandAnswer(13);
 786:main.c        **** 
 787:main.c        ****       return;
 788:main.c        ****     break;
 789:main.c        ****     case CMD_SET_PARAMETER:
 790:main.c        ****       // do we like, all commands are successfully
 791:main.c        ****       answer[0] = CMD_SET_PARAMETER;
 792:main.c        ****       answer[1] = STATUS_CMD_OK;
 793:main.c        **** 
 794:main.c        ****       switch(buf[1]){
 795:main.c        ****         case PARAM_RESET_POLARITY:
 796:main.c        ****           if(buf[2]==0x00)
 797:main.c        ****             usbprog.reset_pol=0;
 798:main.c        ****           else
 799:main.c        ****             usbprog.reset_pol=1;
 800:main.c        **** 
 801:main.c        ****         break;
 802:main.c        **** 
 803:main.c        ****         case PARAM_SCK_DURATION:
 804:main.c        **** 	  #if DEBUG_ON
 805:main.c        ****           UARTPutChar('S');
 806:main.c        ****           SendHex(buf[2]);
 807:main.c        **** 	  #endif
 808:main.c        ****           if (buf[2]>MAX_SCK_DURATION) buf[2]=MAX_SCK_DURATION;
 809:main.c        ****           if (buf[2] != usbprog.sck_duration)
 810:main.c        ****           {
 811:main.c        ****             usbprog.sck_duration = buf[2];
 812:main.c        ****             eeprom_write_byte(&ee_sck_duration, usbprog.sck_duration);
 813:main.c        ****           }
 814:main.c        ****           spi_init();
 815:main.c        ****           break;
 816:main.c        ****       }
 817:main.c        **** 
 818:main.c        ****       CommandAnswer(2);
 819:main.c        ****       return;
 820:main.c        ****     break;
 821:main.c        ****     case CMD_GET_PARAMETER:
 822:main.c        ****       answer[0] = CMD_GET_PARAMETER;
 823:main.c        ****       answer[1] = STATUS_CMD_OK;
 824:main.c        **** 
 825:main.c        ****       switch(buf[1]){
 826:main.c        ****         case PARAM_STATUS_TGT_CONN:
 827:main.c        ****           answer[2] = STATUS_ISP_READY;
 828:main.c        ****         break;
 829:main.c        **** 
 830:main.c        ****         case PARAM_SW_MAJOR:  // avrisp mkII special 1
 831:main.c        ****           answer[2] = 9;
 832:main.c        ****         break;
 833:main.c        **** 
 834:main.c        ****         case PARAM_SW_MINOR:  // abrisp mkII special 6
 835:main.c        ****           answer[2] = 9;
 836:main.c        ****         break;
 837:main.c        **** 
 838:main.c        ****         case PARAM_HW_VER:
 839:main.c        ****           answer[2] = 0;
 840:main.c        ****         break;
 841:main.c        **** 
 842:main.c        **** 
 843:main.c        **** 
 844:main.c        **** 
 845:main.c        ****         case PARAM_VTARGET:
 846:main.c        ****           answer[2] = 50;
 847:main.c        ****         break;
 848:main.c        **** 
 849:main.c        ****         case PARAM_SCK_DURATION:
 850:main.c        ****           answer[2] = usbprog.sck_duration;
 851:main.c        ****         break;
 852:main.c        **** 
 853:main.c        ****         default:
 854:main.c        ****           answer[2] = 0x00; // FIXME all is not perfect!
 855:main.c        ****       }
 856:main.c        ****       CommandAnswer(3);
 857:main.c        ****       return;
 858:main.c        **** 
 859:main.c        ****     break;
 860:main.c        ****     case CMD_OSCCAL:
 861:main.c        ****       /* peforms a calibration secquence */
 862:main.c        ****       answer[0] = CMD_OSCCAL;
 863:main.c        ****       answer[1] = STATUS_CMD_OK;
 864:main.c        ****       CommandAnswer(2);
 865:main.c        ****       return;
 866:main.c        ****     break;
 867:main.c        **** 
 868:main.c        ****     case CMD_READ_OSCCAL_ISP:
 869:main.c        ****       spi_out(buf[2]);
 870:main.c        ****       spi_out(buf[3]);
 871:main.c        ****       spi_out(buf[4]);
 872:main.c        ****       result = spi_in();
 873:main.c        **** 
 874:main.c        ****       answer[0] = CMD_READ_OSCCAL_ISP;
 875:main.c        ****       answer[1] = STATUS_CMD_OK;
 876:main.c        ****       answer[2] = result;
 877:main.c        ****       answer[3] = STATUS_CMD_OK;
 878:main.c        ****       CommandAnswer(4);
 879:main.c        ****       return;
 880:main.c        **** 
 881:main.c        ****     break;
 882:main.c        **** 
 883:main.c        ****     case CMD_LOAD_ADDRESS:
 884:main.c        ****       // set given address
 885:main.c        ****       pgmmode.address = buf[1];
 886:main.c        ****       pgmmode.address = (pgmmode.address << 8) | buf[2];
 887:main.c        ****       pgmmode.address = (pgmmode.address << 8) | buf[3];
 888:main.c        ****       pgmmode.address = (pgmmode.address << 8) | buf[4];
 889:main.c        ****       pgmmode.large_flash = buf[1] & 0x80 ? 1 : 0;
 890:main.c        ****       answer[0] = CMD_LOAD_ADDRESS;
 891:main.c        ****       answer[1] = STATUS_CMD_OK;
 892:main.c        ****       CommandAnswer(2);
 893:main.c        ****       return;
 894:main.c        ****     break;
 895:main.c        **** 
 896:main.c        ****     case CMD_FIRMWARE_UPGRADE:
 897:main.c        ****       avrupdate_start();
 898:main.c        ****       return;
 899:main.c        ****     break;
 900:main.c        **** 
 901:main.c        ****     case CMD_RESET_PROTECTION:
 902:main.c        ****       answer[0] = CMD_RESET_PROTECTION;
 903:main.c        ****       answer[1] = STATUS_CMD_OK;  // this command returns always ok!
 904:main.c        ****       return;
 905:main.c        ****     break;
 906:main.c        **** 
 907:main.c        ****     case CMD_ENTER_PROGMODE_ISP:
 908:main.c        ****       cmd_enter_progmode((struct cmd_enter_progmode_s *)buf);
 909:main.c        ****       pgmmode.poll_address_valid = 0;
 910:main.c        ****       pgmmode.status = STATUS_CMD_OK;
 911:main.c        ****       return;
 912:main.c        **** 
 913:main.c        ****       break;
 914:main.c        **** 
 915:main.c        ****     case CMD_LEAVE_PROGMODE_ISP:
 916:main.c        ****       #if DEBUG_ON
 917:main.c        ****       UARTWrite("leave\r\n");
 918:main.c        ****       #endif
 919:main.c        ****       
 920:main.c        ****       // clear extende addr 
 921:main.c        ****       spi_cmd(0x4d, 0x0000, 0);
 922:main.c        **** 
 923:main.c        ****       LED_off;
 924:main.c        ****       RESET_high;
 925:main.c        ****       spi_idle();
 926:main.c        ****       answer[0] = CMD_LEAVE_PROGMODE_ISP;
 927:main.c        ****       answer[1] = STATUS_CMD_OK;
 928:main.c        ****       CommandAnswer(2);
 929:main.c        **** 
 930:main.c        ****       // wenn adapter vom avrdude aus angesteuert wird
 931:main.c        ****       if(usbprog.avrstudio==0)
 932:main.c        ****       usbprog.datatogl=0;  // to be sure that togl is on next session clear 
 933:main.c        ****       //usbprog.datatogl=1;  // to be sure that togl is on next session clear
 934:main.c        ****       //USBNWrite(RXC1, RX_EN);
 935:main.c        **** 
 936:main.c        ****       return;
 937:main.c        ****     break;
 938:main.c        **** 
 939:main.c        ****     case CMD_CHIP_ERASE_ISP:
 940:main.c        ****       #if DEBUG_ON
 941:main.c        ****       UARTWrite("erase\r\n");
 942:main.c        ****       #endif
 943:main.c        ****       spi_out(buf[3]);
 944:main.c        ****       spi_out(buf[4]);
 945:main.c        ****       spi_out(0x00);
 946:main.c        ****       spi_out(0x00);
 947:main.c        ****       wait_ms(buf[1]);
 948:main.c        ****       answer[0] = CMD_CHIP_ERASE_ISP;
 949:main.c        ****       answer[1] = STATUS_CMD_OK;
 950:main.c        ****       CommandAnswer(2);
 951:main.c        ****       return;
 952:main.c        ****     break;
 953:main.c        **** 
 954:main.c        ****     case CMD_PROGRAM_FLASH_ISP:
 955:main.c        ****       #if DEBUG_ON 
 956:main.c        ****       UARTWrite("pflash\r\n");
 957:main.c        ****       for(i=0;i<10;i++) {
 958:main.c        ****         SendHex(buf[i]);
 959:main.c        ****         UARTPutChar(' ');
 960:main.c        ****       }
 961:main.c        ****       UARTWrite("len ");
 962:main.c        ****         SendHex(buf[2]);
 963:main.c        ****       UARTWrite(" \r\n");
 964:main.c        ****       #endif
 965:main.c        **** 
 966:main.c        ****       pgmmode.numbytes = (buf[1] << 8) | (buf[2]);
 967:main.c        **** 
 968:main.c        ****       // buf[3] = mode
 969:main.c        ****       pgmmode.mode = buf[3];
 970:main.c        ****       // buf[4] = delay
 971:main.c        ****       pgmmode.delay = buf[4];
 972:main.c        **** 
 973:main.c        ****       // buf[5] = spi command for load page and write program memory (one byte at a time)
 974:main.c        ****       pgmmode.cmd1 = buf[5];
 975:main.c        ****       // buf[6] = spi command for write program memory page (one page at a time)
 976:main.c        ****       pgmmode.cmd2 = buf[6];
 977:main.c        ****       // buf[7] = spi command for read program memory
 978:main.c        ****       pgmmode.cmd3 = buf[7];
 979:main.c        ****       // buf[8] = poll value #1 (used for flash programming)
 980:main.c        ****       pgmmode.poll1 = buf[8];
 981:main.c        ****       // buf[9] = poll value #2 (used for eeprom programming)
 982:main.c        ****       pgmmode.poll2 = buf[9];
 983:main.c        **** 
 984:main.c        ****       // store the page address (which in fact are the first 5 bits) for page write command
 985:main.c        ****       // because we will increment pgmode.address during transfer
 986:main.c        ****       pgmmode.pageaddress = pgmmode.address;
 987:main.c        ****       usbprog.cmdpackage = 1;
 988:main.c        ****       program_fsm((uint8_t*)buf, 0);
 989:main.c        ****       usbprog.cmdpackage = 0;
 990:main.c        ****     break;
 991:main.c        **** 
 992:main.c        ****     case CMD_READ_FLASH_ISP:
 993:main.c        ****       #if DEBUG_ON
 994:main.c        ****       UARTWrite("rflash\r\n");
 995:main.c        ****       #endif
 996:main.c        ****       ptr = (uint8_t*)&answer[2];
 997:main.c        ****       pgmmode.numbytes = ((buf[1] << 8) | (buf[2])) + 1; // number of bytes
 998:main.c        ****       pgmmode.cmd3 = buf[3];  // read command
 999:main.c        ****       numbytes = pgmmode.numbytes - 1;
1000:main.c        ****       // collect max first 62 bytes
1001:main.c        ****       while (numbytes--) {
1002:main.c        ****         if (pgmmode.large_flash && (pgmmode.address >> 16) != pgmmode.ext_address){
1003:main.c        ****           pgmmode.ext_address = pgmmode.address >> 16;
1004:main.c        ****           spi_cmd(0x4d, pgmmode.ext_address, 0);
1005:main.c        ****         }
1006:main.c        ****         *ptr++ = spi_cmd(pgmmode.cmd3, pgmmode.address, 0);
1007:main.c        **** 
1008:main.c        ****         if(pgmmode.cmd3 == 0x20){
1009:main.c        ****           pgmmode.cmd3 = 0x28;
1010:main.c        ****         }
1011:main.c        ****         else {
1012:main.c        ****           pgmmode.cmd3 = 0x20;
1013:main.c        ****           pgmmode.address++;
1014:main.c        ****         }
1015:main.c        ****       }
1016:main.c        **** 
1017:main.c        ****       // then toggle send next read bytes
1018:main.c        ****       // and finish with status_cmd_ok
1019:main.c        **** 
1020:main.c        ****       answer[0] = CMD_READ_FLASH_ISP;
1021:main.c        ****       answer[1] = STATUS_CMD_OK;
1022:main.c        ****       answer[pgmmode.numbytes + 1] = STATUS_CMD_OK;
1023:main.c        **** 
1024:main.c        ****       if(pgmmode.numbytes > 62){
1025:main.c        ****         CommandAnswer(64);
1026:main.c        ****         pgmmode.numbytes = pgmmode.numbytes - 62;
1027:main.c        ****         usbprog.fragmentnumber = 1;
1028:main.c        ****       }
1029:main.c        ****       else {
1030:main.c        **** 	CommandAnswer(pgmmode.numbytes + 2);
1031:main.c        **** 	usbprog.datatogl=0; 
1032:main.c        ****       }
1033:main.c        **** 
1034:main.c        ****       return;
1035:main.c        ****     break;
1036:main.c        **** 
1037:main.c        ****     case CMD_READ_LOCK_ISP:
1038:main.c        ****       #if DEBUG_ON
1039:main.c        ****       UARTWrite("rlock\r\n");
1040:main.c        ****       #endif
1041:main.c        ****       spi_out(buf[2]);
1042:main.c        ****       spi_out(buf[3]);
1043:main.c        ****       spi_out(buf[4]);
1044:main.c        ****       result = spi_in();
1045:main.c        **** 
1046:main.c        ****       answer[0] = CMD_READ_LOCK_ISP;
1047:main.c        ****       answer[1] = STATUS_CMD_OK;
1048:main.c        ****       answer[2] = result;
1049:main.c        ****       answer[3] = STATUS_CMD_OK;
1050:main.c        ****       CommandAnswer(4);
1051:main.c        ****       return;
1052:main.c        ****     break;
1053:main.c        **** 
1054:main.c        ****     case CMD_PROGRAM_LOCK_ISP:
1055:main.c        ****       #if DEBUG_ON
1056:main.c        ****       UARTWrite("plock\r\n");
1057:main.c        ****       #endif
1058:main.c        ****       spi_out(buf[1]);
1059:main.c        ****       spi_out(buf[2]);
1060:main.c        ****       spi_out(buf[3]);
1061:main.c        ****       spi_out(buf[4]);
1062:main.c        **** 
1063:main.c        ****       answer[0] = CMD_PROGRAM_LOCK_ISP;
1064:main.c        ****       answer[1] = STATUS_CMD_OK;
1065:main.c        ****       answer[2] = STATUS_CMD_OK;
1066:main.c        ****       CommandAnswer(3);
1067:main.c        ****       return;
1068:main.c        ****     break;
1069:main.c        **** 
1070:main.c        ****     case CMD_PROGRAM_EEPROM_ISP:
1071:main.c        ****       #if DEBUG_ON
1072:main.c        ****       UARTWrite("peerpom\r\n");
1073:main.c        ****       #endif
1074:main.c        ****       // buf[1..2] = number of bytes to program
1075:main.c        ****       pgmmode.numbytes = (buf[1] << 8) | (buf[2]);
1076:main.c        ****       // buf[3] = mode
1077:main.c        ****       pgmmode.mode = buf[3];
1078:main.c        ****       // buf[4] = delay
1079:main.c        ****       pgmmode.delay = buf[4];
1080:main.c        ****       // buf[5] = spi command for load page and write program memory (one byte at a time)
1081:main.c        ****       pgmmode.cmd1 = buf[5];
1082:main.c        ****       // buf[6] = spi command for write program memory page (one page at a time)
1083:main.c        ****       pgmmode.cmd2 = buf[6];
1084:main.c        ****       // buf[7] = spi command for read program memory
1085:main.c        ****       pgmmode.cmd3 = buf[7];
1086:main.c        ****       // buf[8] = poll value #1 (used for flash programming)
1087:main.c        ****       pgmmode.poll1 = buf[8];
1088:main.c        ****       // buf[9] = poll value #2 (used for eeprom programming)
1089:main.c        ****       pgmmode.poll2 = buf[9];
1090:main.c        **** 
1091:main.c        ****       // store the page address (which in fact are the first 5 bits) for page write command
1092:main.c        ****       // because we will increment pgmode.address during transfer
1093:main.c        ****       pgmmode.pageaddress = pgmmode.address;
1094:main.c        **** 
1095:main.c        ****       usbprog.cmdpackage = 1;
1096:main.c        ****       program_fsm((uint8_t*)buf, 1);
1097:main.c        ****       usbprog.cmdpackage = 0;
1098:main.c        ****       return;
1099:main.c        ****     break;
1100:main.c        **** 
1101:main.c        ****     case CMD_READ_EEPROM_ISP:
1102:main.c        ****       pgmmode.numbytes = ((buf[1] << 8) | (buf[2])) + 1; // number of bytes
1103:main.c        ****       pgmmode.cmd3 = buf[3];  // read command
1104:main.c        ****       numbytes = pgmmode.numbytes - 1;
1105:main.c        ****       // collect max first 62 bytes
1106:main.c        ****       ptr = (uint8_t*)&answer[2];
1107:main.c        ****       while(numbytes--) {
1108:main.c        ****         *ptr++ = spi_cmd(pgmmode.cmd3, pgmmode.address, 0);
1109:main.c        ****         pgmmode.address++;
1110:main.c        ****       }
1111:main.c        **** 
1112:main.c        ****       // then toggle send next read bytes
1113:main.c        ****       // and finish with status_cmd_ok
1114:main.c        **** 
1115:main.c        ****       answer[0] = CMD_READ_EEPROM_ISP;
1116:main.c        ****       answer[1] = STATUS_CMD_OK;
1117:main.c        ****       
1118:main.c        ****       answer[pgmmode.numbytes + 1] = STATUS_CMD_OK;
1119:main.c        **** 
1120:main.c        ****       
1121:main.c        ****       if(pgmmode.numbytes > 62){
1122:main.c        ****         CommandAnswer(64);
1123:main.c        ****         pgmmode.numbytes = pgmmode.numbytes - 62;
1124:main.c        ****         usbprog.fragmentnumber = 1;
1125:main.c        **** 	return; 
1126:main.c        ****       }
1127:main.c        ****       else {
1128:main.c        **** 	CommandAnswer(pgmmode.numbytes + 2);
1129:main.c        **** 	if(usbprog.datatogl ==1)
1130:main.c        **** 	usbprog.datatogl = 0;
1131:main.c        **** 	else
1132:main.c        **** 	usbprog.datatogl = 1;
1133:main.c        **** 	return; 
1134:main.c        ****       }
1135:main.c        **** 
1136:main.c        **** 
1137:main.c        ****     break;
1138:main.c        **** 
1139:main.c        ****     case CMD_PROGRAM_FUSE_ISP:
1140:main.c        ****       #if DEBUG_ON
1141:main.c        ****       UARTWrite("pfuse\r\n");
1142:main.c        ****       #endif
1143:main.c        ****       spi_out(buf[1]);
1144:main.c        ****       spi_out(buf[2]);
1145:main.c        ****       spi_out(buf[3]);
1146:main.c        ****       spi_out(buf[4]);
1147:main.c        **** 
1148:main.c        ****       answer[0] = CMD_PROGRAM_FUSE_ISP;
1149:main.c        ****       answer[1] = STATUS_CMD_OK;
1150:main.c        ****       answer[2] = STATUS_CMD_OK;
1151:main.c        ****       CommandAnswer(3);
1152:main.c        ****       return;
1153:main.c        **** 
1154:main.c        ****     break;
1155:main.c        **** 
1156:main.c        ****     case CMD_READ_FUSE_ISP:
1157:main.c        ****       #if DEBUG_ON 
1158:main.c        ****       UARTWrite("rfuse\r\n");
1159:main.c        ****       #endif
1160:main.c        ****       spi_out(buf[2]);
1161:main.c        ****       spi_out(buf[3]);
1162:main.c        ****       spi_out(buf[4]);
1163:main.c        ****       result = spi_in();
1164:main.c        **** 
1165:main.c        ****       answer[0] = CMD_READ_FUSE_ISP;
1166:main.c        ****       answer[1] = STATUS_CMD_OK;
1167:main.c        ****       answer[2] = result;
1168:main.c        ****       answer[3] = STATUS_CMD_OK;
1169:main.c        ****       CommandAnswer(4);
1170:main.c        ****       return;
1171:main.c        ****     break;
1172:main.c        **** 
1173:main.c        ****     case CMD_READ_SIGNATURE_ISP:
1174:main.c        ****       spi_out(buf[2]);
1175:main.c        ****       spi_out(buf[3]);
1176:main.c        ****       spi_out(buf[4]);
1177:main.c        ****       result = spi_in();
1178:main.c        **** 
1179:main.c        ****       answer[0] = CMD_READ_SIGNATURE_ISP;
1180:main.c        ****       answer[1] = STATUS_CMD_OK;
1181:main.c        ****       answer[2] = result;
1182:main.c        ****       answer[3] = STATUS_CMD_OK;
1183:main.c        ****       CommandAnswer(4);
1184:main.c        ****       return;
1185:main.c        ****     break;
1186:main.c        **** 
1187:main.c        ****     case CMD_SPI_MULTI:
1188:main.c        **** 
1189:main.c        ****       //usbprog.datatogl=0;
1190:main.c        ****       #if DEBUG_ON
1191:main.c        ****       UARTWrite("multi\r\n");
1192:main.c        ****       #endif
1193:main.c        ****       usbprog.avrstudio=0;  // only avrdude use this command // this is not true! also at89 @ avr s
1194:main.c        ****       cmd_spi_multi((struct cmd_spi_multi_s *)buf);
1195:main.c        ****       return;
1196:main.c        ****     break;
1197:main.c        ****     }
1198:main.c        ****   }
1199:main.c        **** }
 2325               		.loc 1 1199 1 is_stmt 0 view .LVU666
 2326 08c0 DF91      		pop r29
 2327 08c2 CF91      		pop r28
 2328               	.LVL173:
 2329               		.loc 1 1199 1 view .LVU667
 2330 08c4 1F91      		pop r17
 2331 08c6 0F91      		pop r16
 2332 08c8 FF90      		pop r15
 2333 08ca EF90      		pop r14
 753:main.c        ****        program_fsm((uint8_t*)buf, 1);
 2334               		.loc 1 753 8 view .LVU668
 2335 08cc 0C94 0000 		jmp program_fsm
 2336               	.LVL174:
 2337               	.L153:
 2338               	.LBB240:
 2339               	.LBI240:
 732:main.c        **** {
 2340               		.loc 1 732 6 is_stmt 1 view .LVU669
 2341               	.LBB241:
 766:main.c        ****     switch(buf[0]) {
 2342               		.loc 1 766 5 view .LVU670
 766:main.c        ****     switch(buf[0]) {
 2343               		.loc 1 766 26 is_stmt 0 view .LVU671
 2344 08d0 E881      		ld r30,Y
 766:main.c        ****     switch(buf[0]) {
 2345               		.loc 1 766 21 view .LVU672
 2346 08d2 E093 0000 		sts usbprog,r30
 767:main.c        ****     
 2347               		.loc 1 767 5 is_stmt 1 view .LVU673
 2348 08d6 E150      		subi r30,lo8(-(-1))
 2349 08d8 ED31      		cpi r30,lo8(29)
 2350 08da 00F0      		brlo .+2
 2351 08dc 00C0      		rjmp .L152
 2352 08de F0E0      		ldi r31,0
 2353 08e0 E050      		subi r30,lo8(-(gs(.L158)))
 2354 08e2 F040      		sbci r31,hi8(-(gs(.L158)))
 2355 08e4 0C94 0000 		jmp __tablejump2__
 2356               		.section	.jumptables.gcc.USBFlash,"a",@progbits
 2357               		.p2align	1
 2358               	.L158:
 2359 0000 0000      		.word gs(.L178)
 2360 0002 0000      		.word gs(.L177)
 2361 0004 0000      		.word gs(.L176)
 2362 0006 0000      		.word gs(.L152)
 2363 0008 0000      		.word gs(.L175)
 2364 000a 0000      		.word gs(.L174)
 2365 000c 0000      		.word gs(.L173)
 2366 000e 0000      		.word gs(.L152)
 2367 0010 0000      		.word gs(.L152)
 2368 0012 0000      		.word gs(.L172)
 2369 0014 0000      		.word gs(.L152)
 2370 0016 0000      		.word gs(.L152)
 2371 0018 0000      		.word gs(.L152)
 2372 001a 0000      		.word gs(.L152)
 2373 001c 0000      		.word gs(.L152)
 2374 001e 0000      		.word gs(.L171)
 2375 0020 0000      		.word gs(.L170)
 2376 0022 0000      		.word gs(.L169)
 2377 0024 0000      		.word gs(.L168)
 2378 0026 0000      		.word gs(.L167)
 2379 0028 0000      		.word gs(.L166)
 2380 002a 0000      		.word gs(.L165)
 2381 002c 0000      		.word gs(.L164)
 2382 002e 0000      		.word gs(.L163)
 2383 0030 0000      		.word gs(.L162)
 2384 0032 0000      		.word gs(.L161)
 2385 0034 0000      		.word gs(.L160)
 2386 0036 0000      		.word gs(.L159)
 2387 0038 0000      		.word gs(.L157)
 2388               		.text
 2389               	.L178:
 772:main.c        ****       answer[1] = STATUS_CMD_OK;
 2390               		.loc 1 772 7 view .LVU674
 772:main.c        ****       answer[1] = STATUS_CMD_OK;
 2391               		.loc 1 772 17 is_stmt 0 view .LVU675
 2392 08e8 81E0      		ldi r24,lo8(1)
 2393 08ea 8093 0000 		sts answer,r24
 773:main.c        ****       answer[2] = 10; // fixed length
 2394               		.loc 1 773 7 is_stmt 1 view .LVU676
 773:main.c        ****       answer[2] = 10; // fixed length
 2395               		.loc 1 773 17 is_stmt 0 view .LVU677
 2396 08ee 1092 0000 		sts answer+1,__zero_reg__
 774:main.c        ****       answer[3] = 'A';
 2397               		.loc 1 774 7 is_stmt 1 view .LVU678
 774:main.c        ****       answer[3] = 'A';
 2398               		.loc 1 774 17 is_stmt 0 view .LVU679
 2399 08f2 8AE0      		ldi r24,lo8(10)
 2400 08f4 8093 0000 		sts answer+2,r24
 775:main.c        ****       answer[4] = 'V';
 2401               		.loc 1 775 7 is_stmt 1 view .LVU680
 775:main.c        ****       answer[4] = 'V';
 2402               		.loc 1 775 17 is_stmt 0 view .LVU681
 2403 08f8 81E4      		ldi r24,lo8(65)
 2404 08fa 8093 0000 		sts answer+3,r24
 776:main.c        ****       answer[5] = 'R';
 2405               		.loc 1 776 7 is_stmt 1 view .LVU682
 776:main.c        ****       answer[5] = 'R';
 2406               		.loc 1 776 17 is_stmt 0 view .LVU683
 2407 08fe 86E5      		ldi r24,lo8(86)
 2408 0900 8093 0000 		sts answer+4,r24
 777:main.c        ****       answer[6] = 'I';
 2409               		.loc 1 777 7 is_stmt 1 view .LVU684
 777:main.c        ****       answer[6] = 'I';
 2410               		.loc 1 777 17 is_stmt 0 view .LVU685
 2411 0904 82E5      		ldi r24,lo8(82)
 2412 0906 8093 0000 		sts answer+5,r24
 778:main.c        ****       answer[7] = 'S';
 2413               		.loc 1 778 7 is_stmt 1 view .LVU686
 778:main.c        ****       answer[7] = 'S';
 2414               		.loc 1 778 17 is_stmt 0 view .LVU687
 2415 090a 89E4      		ldi r24,lo8(73)
 2416 090c 8093 0000 		sts answer+6,r24
 779:main.c        ****       answer[8] = 'P';
 2417               		.loc 1 779 7 is_stmt 1 view .LVU688
 779:main.c        ****       answer[8] = 'P';
 2418               		.loc 1 779 17 is_stmt 0 view .LVU689
 2419 0910 83E5      		ldi r24,lo8(83)
 2420 0912 8093 0000 		sts answer+7,r24
 780:main.c        ****       answer[9] = '_';
 2421               		.loc 1 780 7 is_stmt 1 view .LVU690
 780:main.c        ****       answer[9] = '_';
 2422               		.loc 1 780 17 is_stmt 0 view .LVU691
 2423 0916 80E5      		ldi r24,lo8(80)
 2424 0918 8093 0000 		sts answer+8,r24
 781:main.c        ****       answer[10] = 'M';
 2425               		.loc 1 781 7 is_stmt 1 view .LVU692
 781:main.c        ****       answer[10] = 'M';
 2426               		.loc 1 781 17 is_stmt 0 view .LVU693
 2427 091c 8FE5      		ldi r24,lo8(95)
 2428 091e 8093 0000 		sts answer+9,r24
 782:main.c        ****       answer[11] = 'K';
 2429               		.loc 1 782 7 is_stmt 1 view .LVU694
 782:main.c        ****       answer[11] = 'K';
 2430               		.loc 1 782 18 is_stmt 0 view .LVU695
 2431 0922 8DE4      		ldi r24,lo8(77)
 2432 0924 8093 0000 		sts answer+10,r24
 783:main.c        ****       answer[12] = '2';
 2433               		.loc 1 783 7 is_stmt 1 view .LVU696
 783:main.c        ****       answer[12] = '2';
 2434               		.loc 1 783 18 is_stmt 0 view .LVU697
 2435 0928 8BE4      		ldi r24,lo8(75)
 2436 092a 8093 0000 		sts answer+11,r24
 784:main.c        ****       CommandAnswer(13);
 2437               		.loc 1 784 7 is_stmt 1 view .LVU698
 784:main.c        ****       CommandAnswer(13);
 2438               		.loc 1 784 18 is_stmt 0 view .LVU699
 2439 092e 82E3      		ldi r24,lo8(50)
 2440 0930 8093 0000 		sts answer+12,r24
 785:main.c        **** 
 2441               		.loc 1 785 7 is_stmt 1 view .LVU700
 2442 0934 8DE0      		ldi r24,lo8(13)
 2443               	.L210:
 2444               	/* epilogue start */
 785:main.c        **** 
 2445               		.loc 1 785 7 is_stmt 0 view .LVU701
 2446               	.LBE241:
 2447               	.LBE240:
 2448               		.loc 1 1199 1 view .LVU702
 2449 0936 DF91      		pop r29
 2450 0938 CF91      		pop r28
 2451               	.LVL175:
 2452               		.loc 1 1199 1 view .LVU703
 2453 093a 1F91      		pop r17
 2454 093c 0F91      		pop r16
 2455 093e FF90      		pop r15
 2456 0940 EF90      		pop r14
 2457               	.LBB294:
 2458               	.LBB290:
 818:main.c        ****       return;
 2459               		.loc 1 818 7 view .LVU704
 2460 0942 0C94 0000 		jmp CommandAnswer
 2461               	.LVL176:
 2462               	.L177:
 788:main.c        ****     case CMD_SET_PARAMETER:
 2463               		.loc 1 788 5 is_stmt 1 view .LVU705
 791:main.c        ****       answer[1] = STATUS_CMD_OK;
 2464               		.loc 1 791 7 view .LVU706
 791:main.c        ****       answer[1] = STATUS_CMD_OK;
 2465               		.loc 1 791 17 is_stmt 0 view .LVU707
 2466 0946 82E0      		ldi r24,lo8(2)
 2467 0948 8093 0000 		sts answer,r24
 792:main.c        **** 
 2468               		.loc 1 792 7 is_stmt 1 view .LVU708
 792:main.c        **** 
 2469               		.loc 1 792 17 is_stmt 0 view .LVU709
 2470 094c 1092 0000 		sts answer+1,__zero_reg__
 794:main.c        ****         case PARAM_RESET_POLARITY:
 2471               		.loc 1 794 7 is_stmt 1 view .LVU710
 794:main.c        ****         case PARAM_RESET_POLARITY:
 2472               		.loc 1 794 17 is_stmt 0 view .LVU711
 2473 0950 8981      		ldd r24,Y+1
 794:main.c        ****         case PARAM_RESET_POLARITY:
 2474               		.loc 1 794 7 view .LVU712
 2475 0952 8839      		cpi r24,lo8(-104)
 2476 0954 01F0      		breq .L179
 2477 0956 8E39      		cpi r24,lo8(-98)
 2478 0958 01F4      		brne .L180
 796:main.c        ****             usbprog.reset_pol=0;
 2479               		.loc 1 796 11 is_stmt 1 view .LVU713
 796:main.c        ****             usbprog.reset_pol=0;
 2480               		.loc 1 796 13 is_stmt 0 view .LVU714
 2481 095a 8A81      		ldd r24,Y+2
 2482 095c 8111      		cpse r24,__zero_reg__
 2483 095e 00C0      		rjmp .L181
 797:main.c        ****           else
 2484               		.loc 1 797 13 is_stmt 1 view .LVU715
 797:main.c        ****           else
 2485               		.loc 1 797 30 is_stmt 0 view .LVU716
 2486 0960 1092 0000 		sts usbprog+13+1,__zero_reg__
 2487 0964 1092 0000 		sts usbprog+13,__zero_reg__
 2488               	.L180:
 818:main.c        ****       return;
 2489               		.loc 1 818 7 is_stmt 1 view .LVU717
 2490 0968 82E0      		ldi r24,lo8(2)
 2491 096a 00C0      		rjmp .L210
 2492               	.L181:
 799:main.c        **** 
 2493               		.loc 1 799 13 view .LVU718
 799:main.c        **** 
 2494               		.loc 1 799 30 is_stmt 0 view .LVU719
 2495 096c 81E0      		ldi r24,lo8(1)
 2496 096e 90E0      		ldi r25,0
 2497 0970 9093 0000 		sts usbprog+13+1,r25
 2498 0974 8093 0000 		sts usbprog+13,r24
 2499 0978 00C0      		rjmp .L180
 2500               	.L179:
 808:main.c        ****           if (buf[2] != usbprog.sck_duration)
 2501               		.loc 1 808 11 is_stmt 1 view .LVU720
 808:main.c        ****           if (buf[2] != usbprog.sck_duration)
 2502               		.loc 1 808 18 is_stmt 0 view .LVU721
 2503 097a 8A81      		ldd r24,Y+2
 808:main.c        ****           if (buf[2] != usbprog.sck_duration)
 2504               		.loc 1 808 14 view .LVU722
 2505 097c 843A      		cpi r24,lo8(-92)
 2506 097e 00F0      		brlo .L182
 808:main.c        ****           if (buf[2] != usbprog.sck_duration)
 2507               		.loc 1 808 40 is_stmt 1 discriminator 1 view .LVU723
 808:main.c        ****           if (buf[2] != usbprog.sck_duration)
 2508               		.loc 1 808 46 is_stmt 0 discriminator 1 view .LVU724
 2509 0980 83EA      		ldi r24,lo8(-93)
 2510 0982 8A83      		std Y+2,r24
 2511               	.L182:
 809:main.c        ****           {
 2512               		.loc 1 809 11 is_stmt 1 view .LVU725
 809:main.c        ****           {
 2513               		.loc 1 809 18 is_stmt 0 view .LVU726
 2514 0984 282F      		mov r18,r24
 2515 0986 30E0      		ldi r19,0
 809:main.c        ****           {
 2516               		.loc 1 809 32 view .LVU727
 2517 0988 4091 0000 		lds r20,usbprog+7
 2518 098c 5091 0000 		lds r21,usbprog+7+1
 809:main.c        ****           {
 2519               		.loc 1 809 14 view .LVU728
 2520 0990 8417      		cp r24,r20
 2521 0992 1506      		cpc __zero_reg__,r21
 2522 0994 01F0      		breq .L183
 811:main.c        ****             eeprom_write_byte(&ee_sck_duration, usbprog.sck_duration);
 2523               		.loc 1 811 13 is_stmt 1 view .LVU729
 811:main.c        ****             eeprom_write_byte(&ee_sck_duration, usbprog.sck_duration);
 2524               		.loc 1 811 34 is_stmt 0 view .LVU730
 2525 0996 3093 0000 		sts usbprog+7+1,r19
 2526 099a 2093 0000 		sts usbprog+7,r18
 812:main.c        ****           }
 2527               		.loc 1 812 13 is_stmt 1 view .LVU731
 812:main.c        ****           }
 2528               		.loc 1 812 56 is_stmt 0 view .LVU732
 2529 099e 6091 0000 		lds r22,usbprog+7
 2530 09a2 7091 0000 		lds r23,usbprog+7+1
 812:main.c        ****           }
 2531               		.loc 1 812 13 view .LVU733
 2532 09a6 80E0      		ldi r24,lo8(ee_sck_duration)
 2533 09a8 90E0      		ldi r25,hi8(ee_sck_duration)
 2534 09aa 0E94 0000 		call eeprom_write_byte
 2535               	.LVL177:
 2536               	.L183:
 814:main.c        ****           break;
 2537               		.loc 1 814 11 is_stmt 1 view .LVU734
 2538 09ae 0E94 0000 		call spi_init
 2539               	.LVL178:
 815:main.c        ****       }
 2540               		.loc 1 815 11 view .LVU735
 2541 09b2 00C0      		rjmp .L180
 2542               	.L176:
 820:main.c        ****     case CMD_GET_PARAMETER:
 2543               		.loc 1 820 5 view .LVU736
 822:main.c        ****       answer[1] = STATUS_CMD_OK;
 2544               		.loc 1 822 7 view .LVU737
 822:main.c        ****       answer[1] = STATUS_CMD_OK;
 2545               		.loc 1 822 17 is_stmt 0 view .LVU738
 2546 09b4 83E0      		ldi r24,lo8(3)
 2547 09b6 8093 0000 		sts answer,r24
 823:main.c        **** 
 2548               		.loc 1 823 7 is_stmt 1 view .LVU739
 823:main.c        **** 
 2549               		.loc 1 823 17 is_stmt 0 view .LVU740
 2550 09ba 1092 0000 		sts answer+1,__zero_reg__
 825:main.c        ****         case PARAM_STATUS_TGT_CONN:
 2551               		.loc 1 825 7 is_stmt 1 view .LVU741
 825:main.c        ****         case PARAM_STATUS_TGT_CONN:
 2552               		.loc 1 825 17 is_stmt 0 view .LVU742
 2553 09be 8981      		ldd r24,Y+1
 825:main.c        ****         case PARAM_STATUS_TGT_CONN:
 2554               		.loc 1 825 7 view .LVU743
 2555 09c0 8439      		cpi r24,lo8(-108)
 2556 09c2 01F0      		breq .L184
 2557 09c4 00F4      		brsh .L185
 2558 09c6 8139      		cpi r24,lo8(-111)
 2559 09c8 01F0      		breq .L187
 2560 09ca 8239      		cpi r24,lo8(-110)
 2561 09cc 01F0      		breq .L187
 2562               	.L189:
 854:main.c        ****       }
 2563               		.loc 1 854 11 is_stmt 1 view .LVU744
 854:main.c        ****       }
 2564               		.loc 1 854 21 is_stmt 0 view .LVU745
 2565 09ce 1092 0000 		sts answer+2,__zero_reg__
 2566 09d2 00C0      		rjmp .L191
 2567               	.L185:
 825:main.c        ****         case PARAM_STATUS_TGT_CONN:
 2568               		.loc 1 825 7 view .LVU746
 2569 09d4 8839      		cpi r24,lo8(-104)
 2570 09d6 01F4      		brne .L189
 850:main.c        ****         break;
 2571               		.loc 1 850 11 is_stmt 1 view .LVU747
 850:main.c        ****         break;
 2572               		.loc 1 850 30 is_stmt 0 view .LVU748
 2573 09d8 8091 0000 		lds r24,usbprog+7
 2574 09dc 9091 0000 		lds r25,usbprog+7+1
 2575 09e0 00C0      		rjmp .L206
 2576               	.L187:
 835:main.c        ****         break;
 2577               		.loc 1 835 11 is_stmt 1 view .LVU749
 835:main.c        ****         break;
 2578               		.loc 1 835 21 is_stmt 0 view .LVU750
 2579 09e2 89E0      		ldi r24,lo8(9)
 2580               	.L206:
 850:main.c        ****         break;
 2581               		.loc 1 850 21 view .LVU751
 2582 09e4 8093 0000 		sts answer+2,r24
 851:main.c        **** 
 2583               		.loc 1 851 9 is_stmt 1 view .LVU752
 2584               	.L191:
 856:main.c        ****       return;
 2585               		.loc 1 856 7 view .LVU753
 2586 09e8 83E0      		ldi r24,lo8(3)
 2587 09ea 00C0      		rjmp .L210
 2588               	.L184:
 846:main.c        ****         break;
 2589               		.loc 1 846 11 view .LVU754
 846:main.c        ****         break;
 2590               		.loc 1 846 21 is_stmt 0 view .LVU755
 2591 09ec 82E3      		ldi r24,lo8(50)
 2592 09ee 00C0      		rjmp .L206
 2593               	.L175:
 859:main.c        ****     case CMD_OSCCAL:
 2594               		.loc 1 859 5 is_stmt 1 view .LVU756
 862:main.c        ****       answer[1] = STATUS_CMD_OK;
 2595               		.loc 1 862 7 view .LVU757
 862:main.c        ****       answer[1] = STATUS_CMD_OK;
 2596               		.loc 1 862 17 is_stmt 0 view .LVU758
 2597 09f0 85E0      		ldi r24,lo8(5)
 2598               	.L211:
 948:main.c        ****       answer[1] = STATUS_CMD_OK;
 2599               		.loc 1 948 17 view .LVU759
 2600 09f2 8093 0000 		sts answer,r24
 949:main.c        ****       CommandAnswer(2);
 2601               		.loc 1 949 7 is_stmt 1 view .LVU760
 949:main.c        ****       CommandAnswer(2);
 2602               		.loc 1 949 17 is_stmt 0 view .LVU761
 2603 09f6 1092 0000 		sts answer+1,__zero_reg__
 950:main.c        ****       return;
 2604               		.loc 1 950 7 is_stmt 1 view .LVU762
 2605 09fa 00C0      		rjmp .L180
 2606               	.L159:
 866:main.c        **** 
 2607               		.loc 1 866 5 view .LVU763
 869:main.c        ****       spi_out(buf[3]);
 2608               		.loc 1 869 7 view .LVU764
 2609               	.LVL179:
 2610               	.LBB242:
 2611               	.LBI242:
 351:main.c        ****   spi_inout(data);
 2612               		.loc 1 351 6 view .LVU765
 2613               	.LBB243:
 352:main.c        **** }
 2614               		.loc 1 352 3 view .LVU766
 2615 09fc 8A81      		ldd r24,Y+2
 2616 09fe 0E94 0000 		call spi_inout
 2617               	.LVL180:
 352:main.c        **** }
 2618               		.loc 1 352 3 is_stmt 0 view .LVU767
 2619               	.LBE243:
 2620               	.LBE242:
 870:main.c        ****       spi_out(buf[4]);
 2621               		.loc 1 870 7 is_stmt 1 view .LVU768
 2622               	.LBB244:
 2623               	.LBI244:
 351:main.c        ****   spi_inout(data);
 2624               		.loc 1 351 6 view .LVU769
 2625               	.LBB245:
 352:main.c        **** }
 2626               		.loc 1 352 3 view .LVU770
 2627 0a02 8B81      		ldd r24,Y+3
 2628 0a04 0E94 0000 		call spi_inout
 2629               	.LVL181:
 352:main.c        **** }
 2630               		.loc 1 352 3 is_stmt 0 view .LVU771
 2631               	.LBE245:
 2632               	.LBE244:
 871:main.c        ****       result = spi_in();
 2633               		.loc 1 871 7 is_stmt 1 view .LVU772
 2634               	.LBB246:
 2635               	.LBI246:
 351:main.c        ****   spi_inout(data);
 2636               		.loc 1 351 6 view .LVU773
 2637               	.LBB247:
 352:main.c        **** }
 2638               		.loc 1 352 3 view .LVU774
 2639 0a08 8C81      		ldd r24,Y+4
 2640 0a0a 0E94 0000 		call spi_inout
 2641               	.LVL182:
 352:main.c        **** }
 2642               		.loc 1 352 3 is_stmt 0 view .LVU775
 2643               	.LBE247:
 2644               	.LBE246:
 872:main.c        **** 
 2645               		.loc 1 872 7 is_stmt 1 view .LVU776
 872:main.c        **** 
 2646               		.loc 1 872 16 is_stmt 0 view .LVU777
 2647 0a0e 0E94 0000 		call spi_in
 2648               	.LVL183:
 874:main.c        ****       answer[1] = STATUS_CMD_OK;
 2649               		.loc 1 874 7 is_stmt 1 view .LVU778
 874:main.c        ****       answer[1] = STATUS_CMD_OK;
 2650               		.loc 1 874 17 is_stmt 0 view .LVU779
 2651 0a12 9CE1      		ldi r25,lo8(28)
 2652               	.L212:
1179:main.c        ****       answer[1] = STATUS_CMD_OK;
 2653               		.loc 1 1179 17 view .LVU780
 2654 0a14 9093 0000 		sts answer,r25
1180:main.c        ****       answer[2] = result;
 2655               		.loc 1 1180 7 is_stmt 1 view .LVU781
1180:main.c        ****       answer[2] = result;
 2656               		.loc 1 1180 17 is_stmt 0 view .LVU782
 2657 0a18 1092 0000 		sts answer+1,__zero_reg__
1181:main.c        ****       answer[3] = STATUS_CMD_OK;
 2658               		.loc 1 1181 7 is_stmt 1 view .LVU783
1181:main.c        ****       answer[3] = STATUS_CMD_OK;
 2659               		.loc 1 1181 17 is_stmt 0 view .LVU784
 2660 0a1c 8093 0000 		sts answer+2,r24
1182:main.c        ****       CommandAnswer(4);
 2661               		.loc 1 1182 7 is_stmt 1 view .LVU785
1182:main.c        ****       CommandAnswer(4);
 2662               		.loc 1 1182 17 is_stmt 0 view .LVU786
 2663 0a20 1092 0000 		sts answer+3,__zero_reg__
1183:main.c        ****       return;
 2664               		.loc 1 1183 7 is_stmt 1 view .LVU787
 2665 0a24 84E0      		ldi r24,lo8(4)
 2666               	.LVL184:
1183:main.c        ****       return;
 2667               		.loc 1 1183 7 is_stmt 0 view .LVU788
 2668 0a26 00C0      		rjmp .L210
 2669               	.LVL185:
 2670               	.L174:
 881:main.c        **** 
 2671               		.loc 1 881 5 is_stmt 1 view .LVU789
 885:main.c        ****       pgmmode.address = (pgmmode.address << 8) | buf[2];
 2672               		.loc 1 885 7 view .LVU790
 885:main.c        ****       pgmmode.address = (pgmmode.address << 8) | buf[2];
 2673               		.loc 1 885 28 is_stmt 0 view .LVU791
 2674 0a28 8981      		ldd r24,Y+1
 2675 0a2a 90E0      		ldi r25,0
 2676 0a2c A0E0      		ldi r26,0
 2677 0a2e B0E0      		ldi r27,0
 885:main.c        ****       pgmmode.address = (pgmmode.address << 8) | buf[2];
 2678               		.loc 1 885 23 view .LVU792
 2679 0a30 8093 0000 		sts pgmmode+9,r24
 2680 0a34 9093 0000 		sts pgmmode+9+1,r25
 2681 0a38 A093 0000 		sts pgmmode+9+2,r26
 2682 0a3c B093 0000 		sts pgmmode+9+3,r27
 886:main.c        ****       pgmmode.address = (pgmmode.address << 8) | buf[3];
 2683               		.loc 1 886 7 is_stmt 1 view .LVU793
 886:main.c        ****       pgmmode.address = (pgmmode.address << 8) | buf[3];
 2684               		.loc 1 886 42 is_stmt 0 view .LVU794
 2685 0a40 BA2F      		mov r27,r26
 2686 0a42 A92F      		mov r26,r25
 2687 0a44 982F      		mov r25,r24
 2688 0a46 8827      		clr r24
 886:main.c        ****       pgmmode.address = (pgmmode.address << 8) | buf[3];
 2689               		.loc 1 886 53 view .LVU795
 2690 0a48 2A81      		ldd r18,Y+2
 886:main.c        ****       pgmmode.address = (pgmmode.address << 8) | buf[3];
 2691               		.loc 1 886 48 view .LVU796
 2692 0a4a 822B      		or r24,r18
 886:main.c        ****       pgmmode.address = (pgmmode.address << 8) | buf[3];
 2693               		.loc 1 886 23 view .LVU797
 2694 0a4c 8093 0000 		sts pgmmode+9,r24
 2695 0a50 9093 0000 		sts pgmmode+9+1,r25
 2696 0a54 A093 0000 		sts pgmmode+9+2,r26
 2697 0a58 B093 0000 		sts pgmmode+9+3,r27
 887:main.c        ****       pgmmode.address = (pgmmode.address << 8) | buf[4];
 2698               		.loc 1 887 7 is_stmt 1 view .LVU798
 887:main.c        ****       pgmmode.address = (pgmmode.address << 8) | buf[4];
 2699               		.loc 1 887 42 is_stmt 0 view .LVU799
 2700 0a5c BA2F      		mov r27,r26
 2701 0a5e A92F      		mov r26,r25
 2702 0a60 982F      		mov r25,r24
 2703 0a62 8827      		clr r24
 887:main.c        ****       pgmmode.address = (pgmmode.address << 8) | buf[4];
 2704               		.loc 1 887 53 view .LVU800
 2705 0a64 2B81      		ldd r18,Y+3
 887:main.c        ****       pgmmode.address = (pgmmode.address << 8) | buf[4];
 2706               		.loc 1 887 48 view .LVU801
 2707 0a66 822B      		or r24,r18
 887:main.c        ****       pgmmode.address = (pgmmode.address << 8) | buf[4];
 2708               		.loc 1 887 23 view .LVU802
 2709 0a68 8093 0000 		sts pgmmode+9,r24
 2710 0a6c 9093 0000 		sts pgmmode+9+1,r25
 2711 0a70 A093 0000 		sts pgmmode+9+2,r26
 2712 0a74 B093 0000 		sts pgmmode+9+3,r27
 888:main.c        ****       pgmmode.large_flash = buf[1] & 0x80 ? 1 : 0;
 2713               		.loc 1 888 7 is_stmt 1 view .LVU803
 888:main.c        ****       pgmmode.large_flash = buf[1] & 0x80 ? 1 : 0;
 2714               		.loc 1 888 42 is_stmt 0 view .LVU804
 2715 0a78 BA2F      		mov r27,r26
 2716 0a7a A92F      		mov r26,r25
 2717 0a7c 982F      		mov r25,r24
 2718 0a7e 8827      		clr r24
 888:main.c        ****       pgmmode.large_flash = buf[1] & 0x80 ? 1 : 0;
 2719               		.loc 1 888 53 view .LVU805
 2720 0a80 2C81      		ldd r18,Y+4
 888:main.c        ****       pgmmode.large_flash = buf[1] & 0x80 ? 1 : 0;
 2721               		.loc 1 888 48 view .LVU806
 2722 0a82 822B      		or r24,r18
 888:main.c        ****       pgmmode.large_flash = buf[1] & 0x80 ? 1 : 0;
 2723               		.loc 1 888 23 view .LVU807
 2724 0a84 8093 0000 		sts pgmmode+9,r24
 2725 0a88 9093 0000 		sts pgmmode+9+1,r25
 2726 0a8c A093 0000 		sts pgmmode+9+2,r26
 2727 0a90 B093 0000 		sts pgmmode+9+3,r27
 889:main.c        ****       answer[0] = CMD_LOAD_ADDRESS;
 2728               		.loc 1 889 7 is_stmt 1 view .LVU808
 889:main.c        ****       answer[0] = CMD_LOAD_ADDRESS;
 2729               		.loc 1 889 47 is_stmt 0 view .LVU809
 2730 0a94 9981      		ldd r25,Y+1
 889:main.c        ****       answer[0] = CMD_LOAD_ADDRESS;
 2731               		.loc 1 889 27 view .LVU810
 2732 0a96 8091 0000 		lds r24,pgmmode+20
 2733 0a9a 97FB      		bst r25,7
 2734 0a9c 82F9      		bld r24,2
 2735 0a9e 8093 0000 		sts pgmmode+20,r24
 890:main.c        ****       answer[1] = STATUS_CMD_OK;
 2736               		.loc 1 890 7 is_stmt 1 view .LVU811
 890:main.c        ****       answer[1] = STATUS_CMD_OK;
 2737               		.loc 1 890 17 is_stmt 0 view .LVU812
 2738 0aa2 86E0      		ldi r24,lo8(6)
 2739 0aa4 00C0      		rjmp .L211
 2740               	.L173:
 894:main.c        **** 
 2741               		.loc 1 894 5 is_stmt 1 view .LVU813
 897:main.c        ****       return;
 2742               		.loc 1 897 7 view .LVU814
 2743               	/* epilogue start */
 2744               	.LBE290:
 2745               	.LBE294:
 2746               		.loc 1 1199 1 is_stmt 0 view .LVU815
 2747 0aa6 DF91      		pop r29
 2748 0aa8 CF91      		pop r28
 2749               	.LVL186:
 2750               		.loc 1 1199 1 view .LVU816
 2751 0aaa 1F91      		pop r17
 2752 0aac 0F91      		pop r16
 2753 0aae FF90      		pop r15
 2754 0ab0 EF90      		pop r14
 2755               	.LBB295:
 2756               	.LBB291:
 897:main.c        ****       return;
 2757               		.loc 1 897 7 view .LVU817
 2758 0ab2 0C94 0000 		jmp avrupdate_start
 2759               	.LVL187:
 2760               	.L172:
 899:main.c        **** 
 2761               		.loc 1 899 5 is_stmt 1 view .LVU818
 902:main.c        ****       answer[1] = STATUS_CMD_OK;  // this command returns always ok!
 2762               		.loc 1 902 7 view .LVU819
 902:main.c        ****       answer[1] = STATUS_CMD_OK;  // this command returns always ok!
 2763               		.loc 1 902 17 is_stmt 0 view .LVU820
 2764 0ab6 8AE0      		ldi r24,lo8(10)
 2765 0ab8 8093 0000 		sts answer,r24
 903:main.c        ****       return;
 2766               		.loc 1 903 7 is_stmt 1 view .LVU821
 903:main.c        ****       return;
 2767               		.loc 1 903 17 is_stmt 0 view .LVU822
 2768 0abc 1092 0000 		sts answer+1,__zero_reg__
 904:main.c        ****     break;
 2769               		.loc 1 904 7 is_stmt 1 view .LVU823
 2770               	.LVL188:
 2771               	.L152:
 2772               	/* epilogue start */
 904:main.c        ****     break;
 2773               		.loc 1 904 7 is_stmt 0 view .LVU824
 2774               	.LBE291:
 2775               	.LBE295:
 2776               		.loc 1 1199 1 view .LVU825
 2777 0ac0 DF91      		pop r29
 2778 0ac2 CF91      		pop r28
 2779 0ac4 1F91      		pop r17
 2780 0ac6 0F91      		pop r16
 2781 0ac8 FF90      		pop r15
 2782 0aca EF90      		pop r14
 2783 0acc 0895      		ret
 2784               	.LVL189:
 2785               	.L171:
 2786               	.LBB296:
 2787               	.LBB292:
 905:main.c        **** 
 2788               		.loc 1 905 5 is_stmt 1 view .LVU826
 908:main.c        ****       pgmmode.poll_address_valid = 0;
 2789               		.loc 1 908 7 view .LVU827
 2790 0ace CE01      		movw r24,r28
 2791 0ad0 0E94 0000 		call cmd_enter_progmode
 2792               	.LVL190:
 909:main.c        ****       pgmmode.status = STATUS_CMD_OK;
 2793               		.loc 1 909 7 view .LVU828
 909:main.c        ****       pgmmode.status = STATUS_CMD_OK;
 2794               		.loc 1 909 34 is_stmt 0 view .LVU829
 2795 0ad4 8091 0000 		lds r24,pgmmode+20
 2796 0ad8 8E7F      		andi r24,lo8(~(1<<0))
 2797 0ada 8093 0000 		sts pgmmode+20,r24
 910:main.c        ****       return;
 2798               		.loc 1 910 7 is_stmt 1 view .LVU830
 910:main.c        ****       return;
 2799               		.loc 1 910 22 is_stmt 0 view .LVU831
 2800 0ade 1092 0000 		sts pgmmode+17,__zero_reg__
 911:main.c        **** 
 2801               		.loc 1 911 7 is_stmt 1 view .LVU832
 2802 0ae2 00C0      		rjmp .L152
 2803               	.L170:
 913:main.c        **** 
 2804               		.loc 1 913 7 view .LVU833
 921:main.c        **** 
 2805               		.loc 1 921 7 view .LVU834
 2806 0ae4 40E0      		ldi r20,0
 2807 0ae6 60E0      		ldi r22,0
 2808 0ae8 70E0      		ldi r23,0
 2809 0aea 8DE4      		ldi r24,lo8(77)
 2810 0aec 0E94 0000 		call spi_cmd
 2811               	.LVL191:
 923:main.c        ****       RESET_high;
 2812               		.loc 1 923 7 view .LVU835
 2813 0af0 DC98      		cbi 0x1b,4
 924:main.c        ****       spi_idle();
 2814               		.loc 1 924 7 view .LVU836
 2815 0af2 C09A      		sbi 0x18,0
 925:main.c        ****       answer[0] = CMD_LEAVE_PROGMODE_ISP;
 2816               		.loc 1 925 7 view .LVU837
 2817 0af4 0E94 0000 		call spi_idle
 2818               	.LVL192:
 926:main.c        ****       answer[1] = STATUS_CMD_OK;
 2819               		.loc 1 926 7 view .LVU838
 926:main.c        ****       answer[1] = STATUS_CMD_OK;
 2820               		.loc 1 926 17 is_stmt 0 view .LVU839
 2821 0af8 81E1      		ldi r24,lo8(17)
 2822 0afa 8093 0000 		sts answer,r24
 927:main.c        ****       CommandAnswer(2);
 2823               		.loc 1 927 7 is_stmt 1 view .LVU840
 927:main.c        ****       CommandAnswer(2);
 2824               		.loc 1 927 17 is_stmt 0 view .LVU841
 2825 0afe 1092 0000 		sts answer+1,__zero_reg__
 928:main.c        **** 
 2826               		.loc 1 928 7 is_stmt 1 view .LVU842
 2827 0b02 82E0      		ldi r24,lo8(2)
 2828 0b04 0E94 0000 		call CommandAnswer
 2829               	.LVL193:
 931:main.c        ****       usbprog.datatogl=0;  // to be sure that togl is on next session clear 
 2830               		.loc 1 931 7 view .LVU843
 931:main.c        ****       usbprog.datatogl=0;  // to be sure that togl is on next session clear 
 2831               		.loc 1 931 17 is_stmt 0 view .LVU844
 2832 0b08 8091 0000 		lds r24,usbprog+11
 2833 0b0c 9091 0000 		lds r25,usbprog+11+1
 931:main.c        ****       usbprog.datatogl=0;  // to be sure that togl is on next session clear 
 2834               		.loc 1 931 9 view .LVU845
 2835 0b10 892B      		or r24,r25
 2836 0b12 01F4      		brne .L152
 2837               	.LVL194:
 2838               	.L207:
1130:main.c        **** 	else
 2839               		.loc 1 1130 2 is_stmt 1 view .LVU846
1130:main.c        **** 	else
 2840               		.loc 1 1130 19 is_stmt 0 view .LVU847
 2841 0b14 1092 0000 		sts usbprog+5+1,__zero_reg__
 2842 0b18 1092 0000 		sts usbprog+5,__zero_reg__
 2843 0b1c 00C0      		rjmp .L152
 2844               	.LVL195:
 2845               	.L169:
 937:main.c        **** 
 2846               		.loc 1 937 5 is_stmt 1 view .LVU848
 943:main.c        ****       spi_out(buf[4]);
 2847               		.loc 1 943 7 view .LVU849
 2848               	.LBB248:
 2849               	.LBI248:
 351:main.c        ****   spi_inout(data);
 2850               		.loc 1 351 6 view .LVU850
 2851               	.LBB249:
 352:main.c        **** }
 2852               		.loc 1 352 3 view .LVU851
 2853 0b1e 8B81      		ldd r24,Y+3
 2854 0b20 0E94 0000 		call spi_inout
 2855               	.LVL196:
 352:main.c        **** }
 2856               		.loc 1 352 3 is_stmt 0 view .LVU852
 2857               	.LBE249:
 2858               	.LBE248:
 944:main.c        ****       spi_out(0x00);
 2859               		.loc 1 944 7 is_stmt 1 view .LVU853
 2860               	.LBB250:
 2861               	.LBI250:
 351:main.c        ****   spi_inout(data);
 2862               		.loc 1 351 6 view .LVU854
 2863               	.LBB251:
 352:main.c        **** }
 2864               		.loc 1 352 3 view .LVU855
 2865 0b24 8C81      		ldd r24,Y+4
 2866 0b26 0E94 0000 		call spi_inout
 2867               	.LVL197:
 352:main.c        **** }
 2868               		.loc 1 352 3 is_stmt 0 view .LVU856
 2869               	.LBE251:
 2870               	.LBE250:
 945:main.c        ****       spi_out(0x00);
 2871               		.loc 1 945 7 is_stmt 1 view .LVU857
 2872               	.LBB252:
 2873               	.LBI252:
 351:main.c        ****   spi_inout(data);
 2874               		.loc 1 351 6 view .LVU858
 2875               	.LBB253:
 352:main.c        **** }
 2876               		.loc 1 352 3 view .LVU859
 2877 0b2a 80E0      		ldi r24,0
 2878 0b2c 0E94 0000 		call spi_inout
 2879               	.LVL198:
 352:main.c        **** }
 2880               		.loc 1 352 3 is_stmt 0 view .LVU860
 2881               	.LBE253:
 2882               	.LBE252:
 946:main.c        ****       wait_ms(buf[1]);
 2883               		.loc 1 946 7 is_stmt 1 view .LVU861
 2884               	.LBB254:
 2885               	.LBI254:
 351:main.c        ****   spi_inout(data);
 2886               		.loc 1 351 6 view .LVU862
 2887               	.LBB255:
 352:main.c        **** }
 2888               		.loc 1 352 3 view .LVU863
 2889 0b30 80E0      		ldi r24,0
 2890 0b32 0E94 0000 		call spi_inout
 2891               	.LVL199:
 352:main.c        **** }
 2892               		.loc 1 352 3 is_stmt 0 view .LVU864
 2893               	.LBE255:
 2894               	.LBE254:
 947:main.c        ****       answer[0] = CMD_CHIP_ERASE_ISP;
 2895               		.loc 1 947 7 is_stmt 1 view .LVU865
 2896 0b36 8981      		ldd r24,Y+1
 2897 0b38 90E0      		ldi r25,0
 2898 0b3a 0E94 0000 		call wait_ms
 2899               	.LVL200:
 948:main.c        ****       answer[1] = STATUS_CMD_OK;
 2900               		.loc 1 948 7 view .LVU866
 948:main.c        ****       answer[1] = STATUS_CMD_OK;
 2901               		.loc 1 948 17 is_stmt 0 view .LVU867
 2902 0b3e 82E1      		ldi r24,lo8(18)
 2903 0b40 00C0      		rjmp .L211
 2904               	.L168:
 952:main.c        **** 
 2905               		.loc 1 952 5 is_stmt 1 view .LVU868
 966:main.c        **** 
 2906               		.loc 1 966 7 view .LVU869
 966:main.c        **** 
 2907               		.loc 1 966 24 is_stmt 0 view .LVU870
 2908 0b42 8981      		ldd r24,Y+1
 2909 0b44 9A81      		ldd r25,Y+2
 2910 0b46 9827      		eor r25,r24
 2911 0b48 8927      		eor r24,r25
 2912 0b4a 9827      		eor r25,r24
 2913 0b4c 9093 0000 		sts pgmmode+1,r25
 2914 0b50 8093 0000 		sts pgmmode,r24
 969:main.c        ****       // buf[4] = delay
 2915               		.loc 1 969 7 is_stmt 1 view .LVU871
 969:main.c        ****       // buf[4] = delay
 2916               		.loc 1 969 20 is_stmt 0 view .LVU872
 2917 0b54 8B81      		ldd r24,Y+3
 2918 0b56 8093 0000 		sts pgmmode+2,r24
 971:main.c        **** 
 2919               		.loc 1 971 7 is_stmt 1 view .LVU873
 971:main.c        **** 
 2920               		.loc 1 971 21 is_stmt 0 view .LVU874
 2921 0b5a 8C81      		ldd r24,Y+4
 2922 0b5c 8093 0000 		sts pgmmode+3,r24
 974:main.c        ****       // buf[6] = spi command for write program memory page (one page at a time)
 2923               		.loc 1 974 7 is_stmt 1 view .LVU875
 974:main.c        ****       // buf[6] = spi command for write program memory page (one page at a time)
 2924               		.loc 1 974 20 is_stmt 0 view .LVU876
 2925 0b60 8D81      		ldd r24,Y+5
 2926 0b62 8093 0000 		sts pgmmode+4,r24
 976:main.c        ****       // buf[7] = spi command for read program memory
 2927               		.loc 1 976 7 is_stmt 1 view .LVU877
 976:main.c        ****       // buf[7] = spi command for read program memory
 2928               		.loc 1 976 20 is_stmt 0 view .LVU878
 2929 0b66 8E81      		ldd r24,Y+6
 2930 0b68 8093 0000 		sts pgmmode+5,r24
 978:main.c        ****       // buf[8] = poll value #1 (used for flash programming)
 2931               		.loc 1 978 7 is_stmt 1 view .LVU879
 978:main.c        ****       // buf[8] = poll value #1 (used for flash programming)
 2932               		.loc 1 978 20 is_stmt 0 view .LVU880
 2933 0b6c 8F81      		ldd r24,Y+7
 2934 0b6e 8093 0000 		sts pgmmode+6,r24
 980:main.c        ****       // buf[9] = poll value #2 (used for eeprom programming)
 2935               		.loc 1 980 7 is_stmt 1 view .LVU881
 980:main.c        ****       // buf[9] = poll value #2 (used for eeprom programming)
 2936               		.loc 1 980 21 is_stmt 0 view .LVU882
 2937 0b72 8885      		ldd r24,Y+8
 2938 0b74 8093 0000 		sts pgmmode+7,r24
 982:main.c        **** 
 2939               		.loc 1 982 7 is_stmt 1 view .LVU883
 982:main.c        **** 
 2940               		.loc 1 982 21 is_stmt 0 view .LVU884
 2941 0b78 8985      		ldd r24,Y+9
 2942 0b7a 8093 0000 		sts pgmmode+8,r24
 986:main.c        ****       usbprog.cmdpackage = 1;
 2943               		.loc 1 986 7 is_stmt 1 view .LVU885
 986:main.c        ****       usbprog.cmdpackage = 1;
 2944               		.loc 1 986 27 is_stmt 0 view .LVU886
 2945 0b7e 8091 0000 		lds r24,pgmmode+9
 2946 0b82 9091 0000 		lds r25,pgmmode+9+1
 2947 0b86 A091 0000 		lds r26,pgmmode+9+2
 2948 0b8a B091 0000 		lds r27,pgmmode+9+3
 2949 0b8e 8093 0000 		sts pgmmode+13,r24
 2950 0b92 9093 0000 		sts pgmmode+13+1,r25
 2951 0b96 A093 0000 		sts pgmmode+13+2,r26
 2952 0b9a B093 0000 		sts pgmmode+13+3,r27
 987:main.c        ****       program_fsm((uint8_t*)buf, 0);
 2953               		.loc 1 987 7 is_stmt 1 view .LVU887
 987:main.c        ****       program_fsm((uint8_t*)buf, 0);
 2954               		.loc 1 987 26 is_stmt 0 view .LVU888
 2955 0b9e 81E0      		ldi r24,lo8(1)
 2956 0ba0 90E0      		ldi r25,0
 2957 0ba2 9093 0000 		sts usbprog+3+1,r25
 2958 0ba6 8093 0000 		sts usbprog+3,r24
 988:main.c        ****       usbprog.cmdpackage = 0;
 2959               		.loc 1 988 7 is_stmt 1 view .LVU889
 2960 0baa 60E0      		ldi r22,0
 2961               	.L208:
1096:main.c        ****       usbprog.cmdpackage = 0;
 2962               		.loc 1 1096 7 is_stmt 0 view .LVU890
 2963 0bac CE01      		movw r24,r28
 2964 0bae 0E94 0000 		call program_fsm
 2965               	.LVL201:
1097:main.c        ****       return;
 2966               		.loc 1 1097 7 is_stmt 1 view .LVU891
1097:main.c        ****       return;
 2967               		.loc 1 1097 26 is_stmt 0 view .LVU892
 2968 0bb2 1092 0000 		sts usbprog+3+1,__zero_reg__
 2969 0bb6 1092 0000 		sts usbprog+3,__zero_reg__
1098:main.c        ****     break;
 2970               		.loc 1 1098 7 is_stmt 1 view .LVU893
 2971 0bba 00C0      		rjmp .L152
 2972               	.L167:
 996:main.c        ****       pgmmode.numbytes = ((buf[1] << 8) | (buf[2])) + 1; // number of bytes
 2973               		.loc 1 996 7 view .LVU894
 2974               	.LVL202:
 997:main.c        ****       pgmmode.cmd3 = buf[3];  // read command
 2975               		.loc 1 997 7 view .LVU895
 2976 0bbc 8981      		ldd r24,Y+1
 2977 0bbe 9A81      		ldd r25,Y+2
 2978 0bc0 9827      		eor r25,r24
 2979 0bc2 8927      		eor r24,r25
 2980 0bc4 9827      		eor r25,r24
 997:main.c        ****       pgmmode.cmd3 = buf[3];  // read command
 2981               		.loc 1 997 53 is_stmt 0 view .LVU896
 2982 0bc6 9C01      		movw r18,r24
 2983 0bc8 2F5F      		subi r18,-1
 2984 0bca 3F4F      		sbci r19,-1
 997:main.c        ****       pgmmode.cmd3 = buf[3];  // read command
 2985               		.loc 1 997 24 view .LVU897
 2986 0bcc 3093 0000 		sts pgmmode+1,r19
 2987 0bd0 2093 0000 		sts pgmmode,r18
 998:main.c        ****       numbytes = pgmmode.numbytes - 1;
 2988               		.loc 1 998 7 is_stmt 1 view .LVU898
 998:main.c        ****       numbytes = pgmmode.numbytes - 1;
 2989               		.loc 1 998 25 is_stmt 0 view .LVU899
 2990 0bd4 2B81      		ldd r18,Y+3
 998:main.c        ****       numbytes = pgmmode.numbytes - 1;
 2991               		.loc 1 998 20 view .LVU900
 2992 0bd6 2093 0000 		sts pgmmode+6,r18
 999:main.c        ****       // collect max first 62 bytes
 2993               		.loc 1 999 7 is_stmt 1 view .LVU901
 2994               	.LVL203:
1001:main.c        ****         if (pgmmode.large_flash && (pgmmode.address >> 16) != pgmmode.ext_address){
 2995               		.loc 1 1001 7 view .LVU902
 2996 0bda 00E0      		ldi r16,lo8(answer)
 2997 0bdc 10E0      		ldi r17,hi8(answer)
 2998 0bde EC01      		movw r28,r24
 2999               	.LVL204:
1001:main.c        ****         if (pgmmode.large_flash && (pgmmode.address >> 16) != pgmmode.ext_address){
 3000               		.loc 1 1001 7 is_stmt 0 view .LVU903
 3001 0be0 C050      		subi r28,lo8(-(answer))
 3002 0be2 D040      		sbci r29,hi8(-(answer))
1012:main.c        ****           pgmmode.address++;
 3003               		.loc 1 1012 24 view .LVU904
 3004 0be4 30E2      		ldi r19,lo8(32)
 3005 0be6 F32E      		mov r15,r19
1009:main.c        ****         }
 3006               		.loc 1 1009 24 view .LVU905
 3007 0be8 48E2      		ldi r20,lo8(40)
 3008 0bea E42E      		mov r14,r20
 3009               	.LVL205:
 3010               	.L193:
1001:main.c        ****         if (pgmmode.large_flash && (pgmmode.address >> 16) != pgmmode.ext_address){
 3011               		.loc 1 1001 14 is_stmt 1 view .LVU906
1001:main.c        ****         if (pgmmode.large_flash && (pgmmode.address >> 16) != pgmmode.ext_address){
 3012               		.loc 1 1001 14 is_stmt 0 view .LVU907
 3013 0bec C017      		cp r28,r16
 3014 0bee D107      		cpc r29,r17
 3015 0bf0 01F4      		brne .L197
1020:main.c        ****       answer[1] = STATUS_CMD_OK;
 3016               		.loc 1 1020 7 is_stmt 1 view .LVU908
1020:main.c        ****       answer[1] = STATUS_CMD_OK;
 3017               		.loc 1 1020 17 is_stmt 0 view .LVU909
 3018 0bf2 84E1      		ldi r24,lo8(20)
 3019 0bf4 8093 0000 		sts answer,r24
1021:main.c        ****       answer[pgmmode.numbytes + 1] = STATUS_CMD_OK;
 3020               		.loc 1 1021 7 is_stmt 1 view .LVU910
1021:main.c        ****       answer[pgmmode.numbytes + 1] = STATUS_CMD_OK;
 3021               		.loc 1 1021 17 is_stmt 0 view .LVU911
 3022 0bf8 1092 0000 		sts answer+1,__zero_reg__
1022:main.c        **** 
 3023               		.loc 1 1022 7 is_stmt 1 view .LVU912
1022:main.c        **** 
 3024               		.loc 1 1022 21 is_stmt 0 view .LVU913
 3025 0bfc 8091 0000 		lds r24,pgmmode
 3026 0c00 9091 0000 		lds r25,pgmmode+1
1022:main.c        **** 
 3027               		.loc 1 1022 36 view .LVU914
 3028 0c04 FC01      		movw r30,r24
 3029 0c06 E050      		subi r30,lo8(-(answer+1))
 3030 0c08 F040      		sbci r31,hi8(-(answer+1))
 3031 0c0a 1082      		st Z,__zero_reg__
1024:main.c        ****         CommandAnswer(64);
 3032               		.loc 1 1024 7 is_stmt 1 view .LVU915
1024:main.c        ****         CommandAnswer(64);
 3033               		.loc 1 1024 9 is_stmt 0 view .LVU916
 3034 0c0c 8F33      		cpi r24,63
 3035 0c0e 9105      		cpc r25,__zero_reg__
 3036 0c10 00F4      		brsh .+2
 3037 0c12 00C0      		rjmp .L198
 3038               	.LVL206:
 3039               	.L209:
1122:main.c        ****         pgmmode.numbytes = pgmmode.numbytes - 62;
 3040               		.loc 1 1122 9 is_stmt 1 view .LVU917
 3041 0c14 80E4      		ldi r24,lo8(64)
 3042 0c16 0E94 0000 		call CommandAnswer
 3043               	.LVL207:
1123:main.c        ****         usbprog.fragmentnumber = 1;
 3044               		.loc 1 1123 9 view .LVU918
1123:main.c        ****         usbprog.fragmentnumber = 1;
 3045               		.loc 1 1123 45 is_stmt 0 view .LVU919
 3046 0c1a 8091 0000 		lds r24,pgmmode
 3047 0c1e 9091 0000 		lds r25,pgmmode+1
 3048 0c22 CE97      		sbiw r24,62
1123:main.c        ****         usbprog.fragmentnumber = 1;
 3049               		.loc 1 1123 26 view .LVU920
 3050 0c24 9093 0000 		sts pgmmode+1,r25
 3051 0c28 8093 0000 		sts pgmmode,r24
1124:main.c        **** 	return; 
 3052               		.loc 1 1124 9 is_stmt 1 view .LVU921
1124:main.c        **** 	return; 
 3053               		.loc 1 1124 32 is_stmt 0 view .LVU922
 3054 0c2c 81E0      		ldi r24,lo8(1)
 3055 0c2e 90E0      		ldi r25,0
 3056 0c30 9093 0000 		sts usbprog+9+1,r25
 3057 0c34 8093 0000 		sts usbprog+9,r24
1125:main.c        ****       }
 3058               		.loc 1 1125 2 is_stmt 1 view .LVU923
 3059 0c38 00C0      		rjmp .L152
 3060               	.LVL208:
 3061               	.L197:
1002:main.c        ****           pgmmode.ext_address = pgmmode.address >> 16;
 3062               		.loc 1 1002 9 view .LVU924
1002:main.c        ****           pgmmode.ext_address = pgmmode.address >> 16;
 3063               		.loc 1 1002 13 is_stmt 0 view .LVU925
 3064 0c3a 8091 0000 		lds r24,pgmmode+20
1002:main.c        ****           pgmmode.ext_address = pgmmode.address >> 16;
 3065               		.loc 1 1002 12 view .LVU926
 3066 0c3e 82FF      		sbrs r24,2
 3067 0c40 00C0      		rjmp .L194
1002:main.c        ****           pgmmode.ext_address = pgmmode.address >> 16;
 3068               		.loc 1 1002 53 discriminator 1 view .LVU927
 3069 0c42 6091 0000 		lds r22,pgmmode+9
 3070 0c46 7091 0000 		lds r23,pgmmode+9+1
 3071 0c4a 8091 0000 		lds r24,pgmmode+9+2
 3072 0c4e 9091 0000 		lds r25,pgmmode+9+3
 3073 0c52 BC01      		movw r22,r24
 3074 0c54 8827      		clr r24
 3075 0c56 9927      		clr r25
1002:main.c        ****           pgmmode.ext_address = pgmmode.address >> 16;
 3076               		.loc 1 1002 70 discriminator 1 view .LVU928
 3077 0c58 2091 0000 		lds r18,pgmmode+21
 3078 0c5c 3091 0000 		lds r19,pgmmode+21+1
1002:main.c        ****           pgmmode.ext_address = pgmmode.address >> 16;
 3079               		.loc 1 1002 33 discriminator 1 view .LVU929
 3080 0c60 2617      		cp r18,r22
 3081 0c62 3707      		cpc r19,r23
 3082 0c64 1806      		cpc __zero_reg__,r24
 3083 0c66 1906      		cpc __zero_reg__,r25
 3084 0c68 01F0      		breq .L194
1003:main.c        ****           spi_cmd(0x4d, pgmmode.ext_address, 0);
 3085               		.loc 1 1003 11 is_stmt 1 view .LVU930
1003:main.c        ****           spi_cmd(0x4d, pgmmode.ext_address, 0);
 3086               		.loc 1 1003 31 is_stmt 0 view .LVU931
 3087 0c6a 7093 0000 		sts pgmmode+21+1,r23
 3088 0c6e 6093 0000 		sts pgmmode+21,r22
1004:main.c        ****         }
 3089               		.loc 1 1004 11 is_stmt 1 view .LVU932
 3090 0c72 40E0      		ldi r20,0
 3091 0c74 8DE4      		ldi r24,lo8(77)
 3092 0c76 0E94 0000 		call spi_cmd
 3093               	.LVL209:
 3094               	.L194:
1006:main.c        **** 
