   1               		.file	"usbnapi.c"
   2               	__SP_H__ = 0x3e
   3               	__SP_L__ = 0x3d
   4               	__SREG__ = 0x3f
   5               	__tmp_reg__ = 0
   6               	__zero_reg__ = 1
   7               		.text
   8               	.Ltext0:
   9               		.cfi_sections	.debug_frame
  10               		.file 0 "/Users/Dertien/git/usbprog/avrispmk2klon" "../usbn2mc/main/usbnapi.c"
  11               	.global	USBNInit
  13               	USBNInit:
  14               	.LFB12:
  15               		.file 1 "../usbn2mc/main/usbnapi.c"
   1:../usbn2mc/main/usbnapi.c **** /* usbn960x.c
   2:../usbn2mc/main/usbnapi.c **** * Copyright (C) 2006  Benedikt Sauter
   3:../usbn2mc/main/usbnapi.c **** *
   4:../usbn2mc/main/usbnapi.c **** * This program is free software; you can redistribute it and/or modify
   5:../usbn2mc/main/usbnapi.c **** * it under the terms of the GNU General Public License as published by
   6:../usbn2mc/main/usbnapi.c **** * the Free Software Foundation; either version 2 of the License, or
   7:../usbn2mc/main/usbnapi.c **** * (at your option) any later version.
   8:../usbn2mc/main/usbnapi.c **** *
   9:../usbn2mc/main/usbnapi.c **** * This program is distributed in the hope that it will be useful,
  10:../usbn2mc/main/usbnapi.c **** * but WITHOUT ANY WARRANTY; without even the implied warranty of
  11:../usbn2mc/main/usbnapi.c **** * MERCHANTABILITY or FITNESS FOR A PARTICULAR PURPOSE.  See the
  12:../usbn2mc/main/usbnapi.c **** * GNU General Public License for more details.
  13:../usbn2mc/main/usbnapi.c **** *
  14:../usbn2mc/main/usbnapi.c **** * You should have received a copy of the GNU General Public License
  15:../usbn2mc/main/usbnapi.c **** * along with this program; if not, write to the Free Software
  16:../usbn2mc/main/usbnapi.c **** * Foundation, Inc., 59 Temple Place, Suite 330, Boston, MA  02111-1307  USA
  17:../usbn2mc/main/usbnapi.c **** */
  18:../usbn2mc/main/usbnapi.c **** 
  19:../usbn2mc/main/usbnapi.c **** #include <stdlib.h>
  20:../usbn2mc/main/usbnapi.c **** #include <stdio.h>
  21:../usbn2mc/main/usbnapi.c **** #include <string.h>
  22:../usbn2mc/main/usbnapi.c **** #include "usbnapi.h"
  23:../usbn2mc/main/usbnapi.c **** 
  24:../usbn2mc/main/usbnapi.c **** 
  25:../usbn2mc/main/usbnapi.c **** // setup global datastructure
  26:../usbn2mc/main/usbnapi.c **** void USBNInit(void)
  27:../usbn2mc/main/usbnapi.c **** {
  16               		.loc 1 27 1 view -0
  17               		.cfi_startproc
  18               	/* prologue: function */
  19               	/* frame size = 0 */
  20               	/* stack size = 0 */
  21               	.L__stack_usage = 0
  28:../usbn2mc/main/usbnapi.c ****   // one and only device descriptor
  29:../usbn2mc/main/usbnapi.c ****   DeviceDescriptor.bLength=0x12; // length of device descriptor
  22               		.loc 1 29 3 view .LVU1
  23               		.loc 1 29 27 is_stmt 0 view .LVU2
  24 0000 E0E0      		ldi r30,lo8(DeviceDescriptor)
  25 0002 F0E0      		ldi r31,hi8(DeviceDescriptor)
  26 0004 82E1      		ldi r24,lo8(18)
  27 0006 8083      		st Z,r24
  30:../usbn2mc/main/usbnapi.c ****   DeviceDescriptor.bDescriptorType=0x01;
  28               		.loc 1 30 3 is_stmt 1 view .LVU3
  29               		.loc 1 30 35 is_stmt 0 view .LVU4
  30 0008 81E0      		ldi r24,lo8(1)
  31 000a 8183      		std Z+1,r24
  31:../usbn2mc/main/usbnapi.c ****   DeviceDescriptor.bcdUSB=0x0110;
  32               		.loc 1 31 3 is_stmt 1 view .LVU5
  33               		.loc 1 31 26 is_stmt 0 view .LVU6
  34 000c 80E1      		ldi r24,lo8(16)
  35 000e 91E0      		ldi r25,lo8(1)
  36 0010 9383      		std Z+3,r25
  37 0012 8283      		std Z+2,r24
  32:../usbn2mc/main/usbnapi.c ****   DeviceDescriptor.bDeviceClass=0x00;
  38               		.loc 1 32 3 is_stmt 1 view .LVU7
  39               		.loc 1 32 32 is_stmt 0 view .LVU8
  40 0014 1482      		std Z+4,__zero_reg__
  33:../usbn2mc/main/usbnapi.c ****   DeviceDescriptor.bDeviceSubClass=0x00;
  41               		.loc 1 33 3 is_stmt 1 view .LVU9
  42               		.loc 1 33 35 is_stmt 0 view .LVU10
  43 0016 1582      		std Z+5,__zero_reg__
  34:../usbn2mc/main/usbnapi.c ****   DeviceDescriptor.bDeviceProtocol=0x00;
  44               		.loc 1 34 3 is_stmt 1 view .LVU11
  45               		.loc 1 34 35 is_stmt 0 view .LVU12
  46 0018 1682      		std Z+6,__zero_reg__
  35:../usbn2mc/main/usbnapi.c ****   DeviceDescriptor.bMaxPacketSize0=0x08;
  47               		.loc 1 35 3 is_stmt 1 view .LVU13
  48               		.loc 1 35 35 is_stmt 0 view .LVU14
  49 001a 88E0      		ldi r24,lo8(8)
  50 001c 8783      		std Z+7,r24
  36:../usbn2mc/main/usbnapi.c ****   DeviceDescriptor.idVendor=0x0000;
  51               		.loc 1 36 3 is_stmt 1 view .LVU15
  52               		.loc 1 36 28 is_stmt 0 view .LVU16
  53 001e 1186      		std Z+9,__zero_reg__
  54 0020 1086      		std Z+8,__zero_reg__
  37:../usbn2mc/main/usbnapi.c ****   DeviceDescriptor.idProduct=0x0000;
  55               		.loc 1 37 3 is_stmt 1 view .LVU17
  56               		.loc 1 37 29 is_stmt 0 view .LVU18
  57 0022 1386      		std Z+11,__zero_reg__
  58 0024 1286      		std Z+10,__zero_reg__
  38:../usbn2mc/main/usbnapi.c ****   DeviceDescriptor.bcdDevice=0x0000;
  59               		.loc 1 38 3 is_stmt 1 view .LVU19
  60               		.loc 1 38 29 is_stmt 0 view .LVU20
  61 0026 1586      		std Z+13,__zero_reg__
  62 0028 1486      		std Z+12,__zero_reg__
  39:../usbn2mc/main/usbnapi.c ****   DeviceDescriptor.iManufacturer=0x00;
  63               		.loc 1 39 3 is_stmt 1 view .LVU21
  64               		.loc 1 39 33 is_stmt 0 view .LVU22
  65 002a 1686      		std Z+14,__zero_reg__
  40:../usbn2mc/main/usbnapi.c ****   DeviceDescriptor.iProduct=0x00;
  66               		.loc 1 40 3 is_stmt 1 view .LVU23
  67               		.loc 1 40 28 is_stmt 0 view .LVU24
  68 002c 1786      		std Z+15,__zero_reg__
  41:../usbn2mc/main/usbnapi.c ****   DeviceDescriptor.iSerialNumber=0x00;
  69               		.loc 1 41 3 is_stmt 1 view .LVU25
  70               		.loc 1 41 33 is_stmt 0 view .LVU26
  71 002e 108A      		std Z+16,__zero_reg__
  42:../usbn2mc/main/usbnapi.c ****   DeviceDescriptor.bNumConfigurations=0;
  72               		.loc 1 42 3 is_stmt 1 view .LVU27
  73               		.loc 1 42 38 is_stmt 0 view .LVU28
  74 0030 118A      		std Z+17,__zero_reg__
  43:../usbn2mc/main/usbnapi.c **** 
  44:../usbn2mc/main/usbnapi.c ****   // function caller for incomming data
  45:../usbn2mc/main/usbnapi.c ****   rxfifos.rx1 = 0;
  75               		.loc 1 45 3 is_stmt 1 view .LVU29
  76               		.loc 1 45 15 is_stmt 0 view .LVU30
  77 0032 E0E0      		ldi r30,lo8(rxfifos)
  78 0034 F0E0      		ldi r31,hi8(rxfifos)
  79 0036 1082      		st Z,__zero_reg__
  46:../usbn2mc/main/usbnapi.c ****   rxfifos.rx2 = 0;
  80               		.loc 1 46 3 is_stmt 1 view .LVU31
  81               		.loc 1 46 15 is_stmt 0 view .LVU32
  82 0038 1182      		std Z+1,__zero_reg__
  47:../usbn2mc/main/usbnapi.c ****   rxfifos.rx3 = 0;
  83               		.loc 1 47 3 is_stmt 1 view .LVU33
  84               		.loc 1 47 15 is_stmt 0 view .LVU34
  85 003a 1282      		std Z+2,__zero_reg__
  48:../usbn2mc/main/usbnapi.c **** 
  49:../usbn2mc/main/usbnapi.c ****   txfifos.tx1 = 0;
  86               		.loc 1 49 3 is_stmt 1 view .LVU35
  87               		.loc 1 49 15 is_stmt 0 view .LVU36
  88 003c E0E0      		ldi r30,lo8(txfifos)
  89 003e F0E0      		ldi r31,hi8(txfifos)
  90 0040 1082      		st Z,__zero_reg__
  50:../usbn2mc/main/usbnapi.c ****   txfifos.tx2 = 0;
  91               		.loc 1 50 3 is_stmt 1 view .LVU37
  92               		.loc 1 50 15 is_stmt 0 view .LVU38
  93 0042 1182      		std Z+1,__zero_reg__
  51:../usbn2mc/main/usbnapi.c ****   txfifos.tx3 = 0;
  94               		.loc 1 51 3 is_stmt 1 view .LVU39
  95               		.loc 1 51 15 is_stmt 0 view .LVU40
  96 0044 1282      		std Z+2,__zero_reg__
  52:../usbn2mc/main/usbnapi.c **** 
  53:../usbn2mc/main/usbnapi.c **** 
  54:../usbn2mc/main/usbnapi.c ****   DescriptorList=NULL;
  97               		.loc 1 54 3 is_stmt 1 view .LVU41
  98               		.loc 1 54 17 is_stmt 0 view .LVU42
  99 0046 1092 0000 		sts DescriptorList+1,__zero_reg__
 100 004a 1092 0000 		sts DescriptorList,__zero_reg__
  55:../usbn2mc/main/usbnapi.c ****   StringList=NULL;
 101               		.loc 1 55 3 is_stmt 1 view .LVU43
 102               		.loc 1 55 13 is_stmt 0 view .LVU44
 103 004e 1092 0000 		sts StringList+1,__zero_reg__
 104 0052 1092 0000 		sts StringList,__zero_reg__
 105               	/* epilogue start */
  56:../usbn2mc/main/usbnapi.c **** }
 106               		.loc 1 56 1 view .LVU45
 107 0056 0895      		ret
 108               		.cfi_endproc
 109               	.LFE12:
 111               	.global	USBNDeviceIDs
 113               	USBNDeviceIDs:
 114               	.LVL0:
 115               	.LFB13:
  57:../usbn2mc/main/usbnapi.c **** 
  58:../usbn2mc/main/usbnapi.c **** 
  59:../usbn2mc/main/usbnapi.c **** 
  60:../usbn2mc/main/usbnapi.c **** // set all device ids vendor/product/device
  61:../usbn2mc/main/usbnapi.c **** void USBNDeviceIDs(unsigned short idVendor, unsigned short idProduct, unsigned short bcdDevice)
  62:../usbn2mc/main/usbnapi.c **** {
 116               		.loc 1 62 1 is_stmt 1 view -0
 117               		.cfi_startproc
 118               	/* prologue: function */
 119               	/* frame size = 0 */
 120               	/* stack size = 0 */
 121               	.L__stack_usage = 0
  63:../usbn2mc/main/usbnapi.c ****   DeviceDescriptor.idVendor = idVendor;
 122               		.loc 1 63 3 view .LVU47
 123               		.loc 1 63 29 is_stmt 0 view .LVU48
 124 0058 E0E0      		ldi r30,lo8(DeviceDescriptor)
 125 005a F0E0      		ldi r31,hi8(DeviceDescriptor)
 126 005c 9187      		std Z+9,r25
 127 005e 8087      		std Z+8,r24
  64:../usbn2mc/main/usbnapi.c ****   DeviceDescriptor.idProduct = idProduct;
 128               		.loc 1 64 3 is_stmt 1 view .LVU49
 129               		.loc 1 64 30 is_stmt 0 view .LVU50
 130 0060 7387      		std Z+11,r23
 131 0062 6287      		std Z+10,r22
  65:../usbn2mc/main/usbnapi.c ****   DeviceDescriptor.bcdDevice = bcdDevice;
 132               		.loc 1 65 3 is_stmt 1 view .LVU51
 133               		.loc 1 65 30 is_stmt 0 view .LVU52
 134 0064 5587      		std Z+13,r21
 135 0066 4487      		std Z+12,r20
 136               	/* epilogue start */
  66:../usbn2mc/main/usbnapi.c **** }
 137               		.loc 1 66 1 view .LVU53
 138 0068 0895      		ret
 139               		.cfi_endproc
 140               	.LFE13:
 142               	.global	USBNDeviceVendorID
 144               	USBNDeviceVendorID:
 145               	.LVL1:
 146               	.LFB14:
  67:../usbn2mc/main/usbnapi.c **** 
  68:../usbn2mc/main/usbnapi.c **** 
  69:../usbn2mc/main/usbnapi.c **** // set vendor id
  70:../usbn2mc/main/usbnapi.c **** void USBNDeviceVendorID(unsigned short idVendor)
  71:../usbn2mc/main/usbnapi.c **** {
 147               		.loc 1 71 1 is_stmt 1 view -0
 148               		.cfi_startproc
 149               	/* prologue: function */
 150               	/* frame size = 0 */
 151               	/* stack size = 0 */
 152               	.L__stack_usage = 0
  72:../usbn2mc/main/usbnapi.c ****   DeviceDescriptor.idVendor = idVendor;
 153               		.loc 1 72 3 view .LVU55
 154               		.loc 1 72 29 is_stmt 0 view .LVU56
 155 006a 9093 0000 		sts DeviceDescriptor+8+1,r25
 156 006e 8093 0000 		sts DeviceDescriptor+8,r24
 157               	/* epilogue start */
  73:../usbn2mc/main/usbnapi.c **** }
 158               		.loc 1 73 1 view .LVU57
 159 0072 0895      		ret
 160               		.cfi_endproc
 161               	.LFE14:
 163               	.global	USBNDeviceProductID
 165               	USBNDeviceProductID:
 166               	.LVL2:
 167               	.LFB15:
  74:../usbn2mc/main/usbnapi.c **** 
  75:../usbn2mc/main/usbnapi.c **** 
  76:../usbn2mc/main/usbnapi.c **** //set product id
  77:../usbn2mc/main/usbnapi.c **** void USBNDeviceProductID(unsigned short idProduct)
  78:../usbn2mc/main/usbnapi.c **** {
 168               		.loc 1 78 1 is_stmt 1 view -0
 169               		.cfi_startproc
 170               	/* prologue: function */
 171               	/* frame size = 0 */
 172               	/* stack size = 0 */
 173               	.L__stack_usage = 0
  79:../usbn2mc/main/usbnapi.c ****   DeviceDescriptor.idProduct = idProduct;
 174               		.loc 1 79 3 view .LVU59
 175               		.loc 1 79 30 is_stmt 0 view .LVU60
 176 0074 9093 0000 		sts DeviceDescriptor+10+1,r25
 177 0078 8093 0000 		sts DeviceDescriptor+10,r24
 178               	/* epilogue start */
  80:../usbn2mc/main/usbnapi.c **** }
 179               		.loc 1 80 1 view .LVU61
 180 007c 0895      		ret
 181               		.cfi_endproc
 182               	.LFE15:
 184               	.global	USBNDeviceBCDDevice
 186               	USBNDeviceBCDDevice:
 187               	.LVL3:
 188               	.LFB16:
  81:../usbn2mc/main/usbnapi.c **** 
  82:../usbn2mc/main/usbnapi.c **** 
  83:../usbn2mc/main/usbnapi.c **** //set device id
  84:../usbn2mc/main/usbnapi.c **** void USBNDeviceBCDDevice(unsigned short bcdDevice)
  85:../usbn2mc/main/usbnapi.c **** {
 189               		.loc 1 85 1 is_stmt 1 view -0
 190               		.cfi_startproc
 191               	/* prologue: function */
 192               	/* frame size = 0 */
 193               	/* stack size = 0 */
 194               	.L__stack_usage = 0
  86:../usbn2mc/main/usbnapi.c ****   DeviceDescriptor.bcdDevice = bcdDevice;
 195               		.loc 1 86 3 view .LVU63
 196               		.loc 1 86 30 is_stmt 0 view .LVU64
 197 007e 9093 0000 		sts DeviceDescriptor+12+1,r25
 198 0082 8093 0000 		sts DeviceDescriptor+12,r24
 199               	/* epilogue start */
  87:../usbn2mc/main/usbnapi.c **** }
 200               		.loc 1 87 1 view .LVU65
 201 0086 0895      		ret
 202               		.cfi_endproc
 203               	.LFE16:
 205               	.global	USBNDeviceClass
 207               	USBNDeviceClass:
 208               	.LVL4:
 209               	.LFB20:
  88:../usbn2mc/main/usbnapi.c **** 
  89:../usbn2mc/main/usbnapi.c **** 
  90:../usbn2mc/main/usbnapi.c **** // define manufacture string
  91:../usbn2mc/main/usbnapi.c **** void USBNDeviceManufacture (char *manufacture)
  92:../usbn2mc/main/usbnapi.c **** {
  93:../usbn2mc/main/usbnapi.c ****   int index=0;
  94:../usbn2mc/main/usbnapi.c ****   // add new string to string list an get actual index
  95:../usbn2mc/main/usbnapi.c ****   index = _USBNAddStringDescriptor(manufacture);
  96:../usbn2mc/main/usbnapi.c **** 
  97:../usbn2mc/main/usbnapi.c ****   // save index in device descriptor
  98:../usbn2mc/main/usbnapi.c ****   if(index>0)
  99:../usbn2mc/main/usbnapi.c ****     DeviceDescriptor.iManufacturer = index;
 100:../usbn2mc/main/usbnapi.c **** }
 101:../usbn2mc/main/usbnapi.c **** 
 102:../usbn2mc/main/usbnapi.c **** 
 103:../usbn2mc/main/usbnapi.c **** 
 104:../usbn2mc/main/usbnapi.c **** // define manufacture string
 105:../usbn2mc/main/usbnapi.c **** void USBNDeviceProduct (char *product)
 106:../usbn2mc/main/usbnapi.c **** {
 107:../usbn2mc/main/usbnapi.c ****   int index=0;
 108:../usbn2mc/main/usbnapi.c ****   // add new item to string list an get actual index
 109:../usbn2mc/main/usbnapi.c ****   index = _USBNAddStringDescriptor(product);
 110:../usbn2mc/main/usbnapi.c **** 
 111:../usbn2mc/main/usbnapi.c ****   // save index in device descriptor
 112:../usbn2mc/main/usbnapi.c ****   if(index>0)
 113:../usbn2mc/main/usbnapi.c ****     DeviceDescriptor.iProduct = index;
 114:../usbn2mc/main/usbnapi.c **** }
 115:../usbn2mc/main/usbnapi.c **** 
 116:../usbn2mc/main/usbnapi.c **** 
 117:../usbn2mc/main/usbnapi.c **** // define manufacture string
 118:../usbn2mc/main/usbnapi.c **** void USBNDeviceSerialNumber (char *serialnumber)
 119:../usbn2mc/main/usbnapi.c **** {
 120:../usbn2mc/main/usbnapi.c ****   int index=0;
 121:../usbn2mc/main/usbnapi.c ****   // add new item to string list an get actual index
 122:../usbn2mc/main/usbnapi.c ****   index = _USBNAddStringDescriptor(serialnumber);
 123:../usbn2mc/main/usbnapi.c **** 
 124:../usbn2mc/main/usbnapi.c ****   // save index in device descriptor
 125:../usbn2mc/main/usbnapi.c ****   if(index>0)
 126:../usbn2mc/main/usbnapi.c ****     DeviceDescriptor.iSerialNumber = index;
 127:../usbn2mc/main/usbnapi.c **** }
 128:../usbn2mc/main/usbnapi.c **** 
 129:../usbn2mc/main/usbnapi.c **** // define class code
 130:../usbn2mc/main/usbnapi.c **** void USBNDeviceClass(unsigned char classcode)
 131:../usbn2mc/main/usbnapi.c **** {
 210               		.loc 1 131 1 is_stmt 1 view -0
 211               		.cfi_startproc
 212               	/* prologue: function */
 213               	/* frame size = 0 */
 214               	/* stack size = 0 */
 215               	.L__stack_usage = 0
 132:../usbn2mc/main/usbnapi.c ****   DeviceDescriptor.bDeviceClass = classcode;
 216               		.loc 1 132 3 view .LVU67
 217               		.loc 1 132 33 is_stmt 0 view .LVU68
 218 0088 8093 0000 		sts DeviceDescriptor+4,r24
 219               	/* epilogue start */
 133:../usbn2mc/main/usbnapi.c **** }
 220               		.loc 1 133 1 view .LVU69
 221 008c 0895      		ret
 222               		.cfi_endproc
 223               	.LFE20:
 225               	.global	USBNDeviceSubClass
 227               	USBNDeviceSubClass:
 228               	.LVL5:
 229               	.LFB21:
 134:../usbn2mc/main/usbnapi.c **** 
 135:../usbn2mc/main/usbnapi.c **** // define sub class code
 136:../usbn2mc/main/usbnapi.c **** void USBNDeviceSubClass(unsigned char subclasscode)
 137:../usbn2mc/main/usbnapi.c **** {
 230               		.loc 1 137 1 is_stmt 1 view -0
 231               		.cfi_startproc
 232               	/* prologue: function */
 233               	/* frame size = 0 */
 234               	/* stack size = 0 */
 235               	.L__stack_usage = 0
 138:../usbn2mc/main/usbnapi.c ****   DeviceDescriptor.bDeviceSubClass = subclasscode;
 236               		.loc 1 138 3 view .LVU71
 237               		.loc 1 138 36 is_stmt 0 view .LVU72
 238 008e 8093 0000 		sts DeviceDescriptor+5,r24
 239               	/* epilogue start */
 139:../usbn2mc/main/usbnapi.c **** }
 240               		.loc 1 139 1 view .LVU73
 241 0092 0895      		ret
 242               		.cfi_endproc
 243               	.LFE21:
 245               	.global	USBNDeviceProtocol
 247               	USBNDeviceProtocol:
 248               	.LVL6:
 249               	.LFB22:
 140:../usbn2mc/main/usbnapi.c **** 
 141:../usbn2mc/main/usbnapi.c **** // define protocol 
 142:../usbn2mc/main/usbnapi.c **** void USBNDeviceProtocol(unsigned char protocolcode)
 143:../usbn2mc/main/usbnapi.c **** {
 250               		.loc 1 143 1 is_stmt 1 view -0
 251               		.cfi_startproc
 252               	/* prologue: function */
 253               	/* frame size = 0 */
 254               	/* stack size = 0 */
 255               	.L__stack_usage = 0
 144:../usbn2mc/main/usbnapi.c ****   DeviceDescriptor.bDeviceProtocol = protocolcode;
 256               		.loc 1 144 3 view .LVU75
 257               		.loc 1 144 36 is_stmt 0 view .LVU76
 258 0094 8093 0000 		sts DeviceDescriptor+6,r24
 259               	/* epilogue start */
 145:../usbn2mc/main/usbnapi.c **** }
 260               		.loc 1 145 1 view .LVU77
 261 0098 0895      		ret
 262               		.cfi_endproc
 263               	.LFE22:
 265               	.global	USBNConfigurationPower
 267               	USBNConfigurationPower:
 268               	.LVL7:
 269               	.LFB25:
 146:../usbn2mc/main/usbnapi.c **** 
 147:../usbn2mc/main/usbnapi.c **** // add new configuration to device
 148:../usbn2mc/main/usbnapi.c **** int USBNAddConfiguration(void)
 149:../usbn2mc/main/usbnapi.c **** {
 150:../usbn2mc/main/usbnapi.c ****   int index;
 151:../usbn2mc/main/usbnapi.c ****   
 152:../usbn2mc/main/usbnapi.c ****   index = ++DeviceDescriptor.bNumConfigurations;
 153:../usbn2mc/main/usbnapi.c **** 
 154:../usbn2mc/main/usbnapi.c ****   struct usb_configuration_descriptor* conf =   
 155:../usbn2mc/main/usbnapi.c ****       (struct usb_configuration_descriptor*)malloc(sizeof(struct usb_configuration_descriptor));
 156:../usbn2mc/main/usbnapi.c **** 
 157:../usbn2mc/main/usbnapi.c ****   conf->bLength=sizeof(struct usb_configuration_descriptor);
 158:../usbn2mc/main/usbnapi.c ****   //conf->wTotalLength=sizeof(struct usb_configuration_descriptor);
 159:../usbn2mc/main/usbnapi.c ****   conf->wTotalLength=0x09; // will be updated when confarray has been built
 160:../usbn2mc/main/usbnapi.c ****   conf->bDescriptorType=0x02;
 161:../usbn2mc/main/usbnapi.c ****   conf->bNumInterfaces=0x00;
 162:../usbn2mc/main/usbnapi.c ****   conf->bConfigurationValue=index; // number of configuration
 163:../usbn2mc/main/usbnapi.c ****   conf->iConfiguration=0x00; // string index for configuration 
 164:../usbn2mc/main/usbnapi.c ****   conf->bmAttributes=0x80;  // bus powered
 165:../usbn2mc/main/usbnapi.c ****   //conf->bmAttributes=0xA0;  // bus powered
 166:../usbn2mc/main/usbnapi.c ****   conf->MaxPower=0x1A;  // max power 
 167:../usbn2mc/main/usbnapi.c **** 
 168:../usbn2mc/main/usbnapi.c ****   _USBNAddToList((void*)conf, 0x09,0x02,0,0,0);
 169:../usbn2mc/main/usbnapi.c **** 
 170:../usbn2mc/main/usbnapi.c ****   return index;
 171:../usbn2mc/main/usbnapi.c **** }
 172:../usbn2mc/main/usbnapi.c **** 
 173:../usbn2mc/main/usbnapi.c **** // give a name the configuration
 174:../usbn2mc/main/usbnapi.c **** void USBNConfigurationName(int configuration, char *name)
 175:../usbn2mc/main/usbnapi.c **** {
 176:../usbn2mc/main/usbnapi.c ****   int index=0;
 177:../usbn2mc/main/usbnapi.c ****   // add new item to string list an get actual index
 178:../usbn2mc/main/usbnapi.c ****   index = _USBNAddStringDescriptor(name);
 179:../usbn2mc/main/usbnapi.c ****   // find configuration id  
 180:../usbn2mc/main/usbnapi.c ****   struct list_entry *ptr = DescriptorList;
 181:../usbn2mc/main/usbnapi.c ****   char *values; 	      
 182:../usbn2mc/main/usbnapi.c ****   while(ptr != NULL) {
 183:../usbn2mc/main/usbnapi.c ****     values = (char*)ptr->data;	      
 184:../usbn2mc/main/usbnapi.c ****     if(ptr->type==0x02 && values[5]==configuration) // if descr = confi 
 185:../usbn2mc/main/usbnapi.c ****     {
 186:../usbn2mc/main/usbnapi.c ****       values[6]=index;
 187:../usbn2mc/main/usbnapi.c ****     }
 188:../usbn2mc/main/usbnapi.c ****     ptr=ptr->next;
 189:../usbn2mc/main/usbnapi.c ****   }
 190:../usbn2mc/main/usbnapi.c **** }
 191:../usbn2mc/main/usbnapi.c **** 
 192:../usbn2mc/main/usbnapi.c **** void USBNConfigurationPower (int configuration, int power)
 193:../usbn2mc/main/usbnapi.c **** {
 270               		.loc 1 193 1 is_stmt 1 view -0
 271               		.cfi_startproc
 272               	/* prologue: function */
 273               	/* frame size = 0 */
 274               	/* stack size = 0 */
 275               	.L__stack_usage = 0
 276               		.loc 1 193 1 is_stmt 0 view .LVU79
 277 009a AC01      		movw r20,r24
 278 009c 9B01      		movw r18,r22
 194:../usbn2mc/main/usbnapi.c ****   // find configuration id  
 195:../usbn2mc/main/usbnapi.c ****   struct list_entry *ptr = DescriptorList;
 279               		.loc 1 195 3 is_stmt 1 view .LVU80
 280               		.loc 1 195 22 is_stmt 0 view .LVU81
 281 009e E091 0000 		lds r30,DescriptorList
 282 00a2 F091 0000 		lds r31,DescriptorList+1
 283               	.LVL8:
 196:../usbn2mc/main/usbnapi.c ****   char *values; 	      
 284               		.loc 1 196 3 is_stmt 1 view .LVU82
 197:../usbn2mc/main/usbnapi.c ****   while(ptr != NULL) {
 285               		.loc 1 197 3 view .LVU83
 286               	.L10:
 287               		.loc 1 197 13 view .LVU84
 288 00a6 3097      		sbiw r30,0
 289 00a8 01F4      		brne .L13
 290               	/* epilogue start */
 198:../usbn2mc/main/usbnapi.c ****     values = (char*)ptr->data;	      
 199:../usbn2mc/main/usbnapi.c ****     if(ptr->type==0x02 && values[5]==configuration) // if descr = confi 
 200:../usbn2mc/main/usbnapi.c ****     {
 201:../usbn2mc/main/usbnapi.c ****       values[8]=power/2;
 202:../usbn2mc/main/usbnapi.c ****     }
 203:../usbn2mc/main/usbnapi.c ****     ptr=ptr->next;
 204:../usbn2mc/main/usbnapi.c ****   }
 205:../usbn2mc/main/usbnapi.c **** }
 291               		.loc 1 205 1 is_stmt 0 view .LVU85
 292 00aa 0895      		ret
 293               	.L13:
 198:../usbn2mc/main/usbnapi.c ****     values = (char*)ptr->data;	      
 294               		.loc 1 198 5 is_stmt 1 view .LVU86
 295               	.LVL9:
 199:../usbn2mc/main/usbnapi.c ****     {
 296               		.loc 1 199 5 view .LVU87
 199:../usbn2mc/main/usbnapi.c ****     {
 297               		.loc 1 199 7 is_stmt 0 view .LVU88
 298 00ac 8281      		ldd r24,Z+2
 299 00ae 8230      		cpi r24,lo8(2)
 300 00b0 01F4      		brne .L11
 198:../usbn2mc/main/usbnapi.c ****     values = (char*)ptr->data;	      
 301               		.loc 1 198 12 view .LVU89
 302 00b2 A081      		ld r26,Z
 303 00b4 B181      		ldd r27,Z+1
 199:../usbn2mc/main/usbnapi.c ****     {
 304               		.loc 1 199 33 discriminator 1 view .LVU90
 305 00b6 1596      		adiw r26,5
 306 00b8 8C91      		ld r24,X
 307 00ba 1597      		sbiw r26,5
 199:../usbn2mc/main/usbnapi.c ****     {
 308               		.loc 1 199 24 discriminator 1 view .LVU91
 309 00bc 8417      		cp r24,r20
 310 00be 1506      		cpc __zero_reg__,r21
 311 00c0 01F4      		brne .L11
 201:../usbn2mc/main/usbnapi.c ****     }
 312               		.loc 1 201 7 is_stmt 1 view .LVU92
 201:../usbn2mc/main/usbnapi.c ****     }
 313               		.loc 1 201 22 is_stmt 0 view .LVU93
 314 00c2 C901      		movw r24,r18
 315 00c4 37FD      		sbrc r19,7
 201:../usbn2mc/main/usbnapi.c ****     }
 316               		.loc 1 201 22 view .LVU94
 317 00c6 0196      		adiw r24,1
 318               	.L12:
 319 00c8 9595      		asr r25
 320 00ca 8795      		ror r24
 201:../usbn2mc/main/usbnapi.c ****     }
 321               		.loc 1 201 16 view .LVU95
 322 00cc 1896      		adiw r26,8
 323 00ce 8C93      		st X,r24
 324               	.LVL10:
 325               	.L11:
 203:../usbn2mc/main/usbnapi.c ****   }
 326               		.loc 1 203 5 is_stmt 1 view .LVU96
 203:../usbn2mc/main/usbnapi.c ****   }
 327               		.loc 1 203 8 is_stmt 0 view .LVU97
 328 00d0 0780      		ldd __tmp_reg__,Z+7
 329 00d2 F085      		ldd r31,Z+8
 330 00d4 E02D      		mov r30,__tmp_reg__
 331               	.LVL11:
 203:../usbn2mc/main/usbnapi.c ****   }
 332               		.loc 1 203 8 view .LVU98
 333 00d6 00C0      		rjmp .L10
 334               		.cfi_endproc
 335               	.LFE25:
 337               	.global	USBNAlternateSetting
 339               	USBNAlternateSetting:
 340               	.LVL12:
 341               	.LFB29:
 206:../usbn2mc/main/usbnapi.c **** 
 207:../usbn2mc/main/usbnapi.c **** // add new interface to configuration
 208:../usbn2mc/main/usbnapi.c **** int USBNAddInterfaceClass (int configuration, int number, char class, char subclass, char protocol)
 209:../usbn2mc/main/usbnapi.c **** {
 210:../usbn2mc/main/usbnapi.c ****   int index=0;
 211:../usbn2mc/main/usbnapi.c ****   // get new interface number
 212:../usbn2mc/main/usbnapi.c ****   struct list_entry *ptr = DescriptorList;
 213:../usbn2mc/main/usbnapi.c ****   char *values; 	      
 214:../usbn2mc/main/usbnapi.c ****   while(ptr != NULL) {
 215:../usbn2mc/main/usbnapi.c ****     values = (char*)ptr->data;	      
 216:../usbn2mc/main/usbnapi.c ****     if(values[5]==(char)configuration && ptr->type==0x02) // if descr = confi 
 217:../usbn2mc/main/usbnapi.c ****     {
 218:../usbn2mc/main/usbnapi.c ****       values[4]++;
 219:../usbn2mc/main/usbnapi.c ****       index =  values[4];
 220:../usbn2mc/main/usbnapi.c ****     }
 221:../usbn2mc/main/usbnapi.c ****     ptr=ptr->next;
 222:../usbn2mc/main/usbnapi.c ****   }
 223:../usbn2mc/main/usbnapi.c ****   
 224:../usbn2mc/main/usbnapi.c ****   struct usb_interface_descriptor* interf;
 225:../usbn2mc/main/usbnapi.c ****   interf = (struct usb_interface_descriptor*)malloc(sizeof(struct usb_interface_descriptor));
 226:../usbn2mc/main/usbnapi.c ****   interf->bLength = 0x09;  
 227:../usbn2mc/main/usbnapi.c ****   interf->bDescriptorType     = INTERFACE;
 228:../usbn2mc/main/usbnapi.c ****   interf->bInterfaceNumber     = number; // FIXME
 229:../usbn2mc/main/usbnapi.c ****   interf->bAlternateSetting   = 0x00;
 230:../usbn2mc/main/usbnapi.c ****   interf->bNumEndpoints       = 0x00;
 231:../usbn2mc/main/usbnapi.c ****   interf->bInterfaceClass     = class;
 232:../usbn2mc/main/usbnapi.c ****   interf->bInterfaceSubClass   = subclass;
 233:../usbn2mc/main/usbnapi.c ****   interf->bInterfaceProtocol   = protocol;
 234:../usbn2mc/main/usbnapi.c ****   interf->iInterface           = 0x00;
 235:../usbn2mc/main/usbnapi.c ****   
 236:../usbn2mc/main/usbnapi.c ****   _USBNAddToList((void*)interf, 0x09,INTERFACE,(uint8_t)configuration,0,index);
 237:../usbn2mc/main/usbnapi.c ****   return index;
 238:../usbn2mc/main/usbnapi.c **** }
 239:../usbn2mc/main/usbnapi.c **** 
 240:../usbn2mc/main/usbnapi.c **** 
 241:../usbn2mc/main/usbnapi.c **** 
 242:../usbn2mc/main/usbnapi.c **** // add new interface to configuration
 243:../usbn2mc/main/usbnapi.c **** int USBNAddInterface (int configuration, int number)
 244:../usbn2mc/main/usbnapi.c **** {
 245:../usbn2mc/main/usbnapi.c ****   int index=0;
 246:../usbn2mc/main/usbnapi.c ****   // get new interface number
 247:../usbn2mc/main/usbnapi.c ****   struct list_entry *ptr = DescriptorList;
 248:../usbn2mc/main/usbnapi.c ****   char *values; 	      
 249:../usbn2mc/main/usbnapi.c ****   while(ptr != NULL) {
 250:../usbn2mc/main/usbnapi.c ****     values = (char*)ptr->data;	      
 251:../usbn2mc/main/usbnapi.c ****     if(values[5]==(char)configuration && ptr->type==0x02) // if descr = confi 
 252:../usbn2mc/main/usbnapi.c ****     {
 253:../usbn2mc/main/usbnapi.c ****       values[4]++;
 254:../usbn2mc/main/usbnapi.c ****       index =  values[4];
 255:../usbn2mc/main/usbnapi.c ****     }
 256:../usbn2mc/main/usbnapi.c ****     ptr=ptr->next;
 257:../usbn2mc/main/usbnapi.c ****   }
 258:../usbn2mc/main/usbnapi.c ****   
 259:../usbn2mc/main/usbnapi.c ****   struct usb_interface_descriptor* interf;
 260:../usbn2mc/main/usbnapi.c ****   interf = (struct usb_interface_descriptor*)malloc(sizeof(struct usb_interface_descriptor));
 261:../usbn2mc/main/usbnapi.c ****   interf->bLength = 0x09;  
 262:../usbn2mc/main/usbnapi.c ****   interf->bDescriptorType     = INTERFACE;
 263:../usbn2mc/main/usbnapi.c ****   interf->bInterfaceNumber     = number; // FIXME
 264:../usbn2mc/main/usbnapi.c ****   interf->bAlternateSetting   = 0x00;
 265:../usbn2mc/main/usbnapi.c ****   interf->bNumEndpoints       = 0x00;
 266:../usbn2mc/main/usbnapi.c ****   interf->bInterfaceClass     = 0x00;
 267:../usbn2mc/main/usbnapi.c ****   interf->bInterfaceSubClass   = 0x00;
 268:../usbn2mc/main/usbnapi.c ****   interf->bInterfaceProtocol   = 0x00;
 269:../usbn2mc/main/usbnapi.c ****   interf->iInterface           = 0x00;
 270:../usbn2mc/main/usbnapi.c ****   
 271:../usbn2mc/main/usbnapi.c ****   _USBNAddToList((void*)interf, 0x09,INTERFACE,(uint8_t)configuration,0,index);
 272:../usbn2mc/main/usbnapi.c ****   return index;
 273:../usbn2mc/main/usbnapi.c **** }
 274:../usbn2mc/main/usbnapi.c **** 
 275:../usbn2mc/main/usbnapi.c **** 
 276:../usbn2mc/main/usbnapi.c **** void USBNInterfaceName(int configuration, int interface, char *name)
 277:../usbn2mc/main/usbnapi.c **** {
 278:../usbn2mc/main/usbnapi.c ****   int index=0;
 279:../usbn2mc/main/usbnapi.c ****   // add new item to string list an get actual index
 280:../usbn2mc/main/usbnapi.c ****   index = _USBNAddStringDescriptor(name);
 281:../usbn2mc/main/usbnapi.c ****   // find configuration id  
 282:../usbn2mc/main/usbnapi.c ****   struct list_entry *ptr = DescriptorList;
 283:../usbn2mc/main/usbnapi.c ****   char *values; 	      
 284:../usbn2mc/main/usbnapi.c ****   while(ptr != NULL) {
 285:../usbn2mc/main/usbnapi.c ****     values = (char*)ptr->data;	      
 286:../usbn2mc/main/usbnapi.c ****     //if(ptr->type==0x04 && ptr->conf==configuration && values[2]==interface) // if descr = confi 
 287:../usbn2mc/main/usbnapi.c ****     if(ptr->type==0x04 && ptr->conf==configuration && ptr->index==interface) // if descr = confi 
 288:../usbn2mc/main/usbnapi.c ****     {
 289:../usbn2mc/main/usbnapi.c ****       values[8]=index;
 290:../usbn2mc/main/usbnapi.c ****     }
 291:../usbn2mc/main/usbnapi.c ****     ptr=ptr->next;
 292:../usbn2mc/main/usbnapi.c ****   }
 293:../usbn2mc/main/usbnapi.c **** }
 294:../usbn2mc/main/usbnapi.c **** 
 295:../usbn2mc/main/usbnapi.c **** // TODO
 296:../usbn2mc/main/usbnapi.c **** void USBNAlternateSetting(int configuration, int interface, int setting)
 297:../usbn2mc/main/usbnapi.c **** {
 342               		.loc 1 297 1 is_stmt 1 view -0
 343               		.cfi_startproc
 344               		.loc 1 297 1 is_stmt 0 view .LVU100
 345 00d8 CF93      		push r28
 346               		.cfi_def_cfa_offset 3
 347               		.cfi_offset 28, -2
 348 00da DF93      		push r29
 349               		.cfi_def_cfa_offset 4
 350               		.cfi_offset 29, -3
 351               	/* prologue: function */
 352               	/* frame size = 0 */
 353               	/* stack size = 2 */
 354               	.L__stack_usage = 2
 355 00dc 9C01      		movw r18,r24
 356 00de DB01      		movw r26,r22
 298:../usbn2mc/main/usbnapi.c ****   // find configuration id  
 299:../usbn2mc/main/usbnapi.c ****   struct list_entry *ptr = DescriptorList;
 357               		.loc 1 299 3 is_stmt 1 view .LVU101
 358               		.loc 1 299 22 is_stmt 0 view .LVU102
 359 00e0 E091 0000 		lds r30,DescriptorList
 360 00e4 F091 0000 		lds r31,DescriptorList+1
 361               	.LVL13:
 300:../usbn2mc/main/usbnapi.c ****   char *values; 	      
 362               		.loc 1 300 3 is_stmt 1 view .LVU103
 301:../usbn2mc/main/usbnapi.c ****   while(ptr != NULL) {
 363               		.loc 1 301 3 view .LVU104
 364               	.L15:
 365               		.loc 1 301 13 view .LVU105
 366 00e8 3097      		sbiw r30,0
 367 00ea 01F4      		brne .L17
 368               	/* epilogue start */
 302:../usbn2mc/main/usbnapi.c ****     values = (char*)ptr->data;	      
 303:../usbn2mc/main/usbnapi.c ****     if(ptr->type==0x04 && ptr->conf==configuration && ptr->index==interface) // if descr = confi 
 304:../usbn2mc/main/usbnapi.c ****     {
 305:../usbn2mc/main/usbnapi.c ****       values[3]=setting;
 306:../usbn2mc/main/usbnapi.c ****     }
 307:../usbn2mc/main/usbnapi.c ****     ptr=ptr->next;
 308:../usbn2mc/main/usbnapi.c ****   }
 309:../usbn2mc/main/usbnapi.c **** }
 369               		.loc 1 309 1 is_stmt 0 view .LVU106
 370 00ec DF91      		pop r29
 371 00ee CF91      		pop r28
 372 00f0 0895      		ret
 373               	.L17:
 302:../usbn2mc/main/usbnapi.c ****     values = (char*)ptr->data;	      
 374               		.loc 1 302 5 is_stmt 1 view .LVU107
 375               	.LVL14:
 303:../usbn2mc/main/usbnapi.c ****     {
 376               		.loc 1 303 5 view .LVU108
 303:../usbn2mc/main/usbnapi.c ****     {
 377               		.loc 1 303 7 is_stmt 0 view .LVU109
 378 00f2 8281      		ldd r24,Z+2
 379 00f4 8430      		cpi r24,lo8(4)
 380 00f6 01F4      		brne .L16
 303:../usbn2mc/main/usbnapi.c ****     {
 381               		.loc 1 303 30 discriminator 1 view .LVU110
 382 00f8 8481      		ldd r24,Z+4
 303:../usbn2mc/main/usbnapi.c ****     {
 383               		.loc 1 303 24 discriminator 1 view .LVU111
 384 00fa 8217      		cp r24,r18
 385 00fc 1306      		cpc __zero_reg__,r19
 386 00fe 01F4      		brne .L16
 303:../usbn2mc/main/usbnapi.c ****     {
 387               		.loc 1 303 58 discriminator 2 view .LVU112
 388 0100 8681      		ldd r24,Z+6
 303:../usbn2mc/main/usbnapi.c ****     {
 389               		.loc 1 303 52 discriminator 2 view .LVU113
 390 0102 8A17      		cp r24,r26
 391 0104 1B06      		cpc __zero_reg__,r27
 392 0106 01F4      		brne .L16
 302:../usbn2mc/main/usbnapi.c ****     values = (char*)ptr->data;	      
 393               		.loc 1 302 12 view .LVU114
 394 0108 C081      		ld r28,Z
 395 010a D181      		ldd r29,Z+1
 305:../usbn2mc/main/usbnapi.c ****     }
 396               		.loc 1 305 7 is_stmt 1 view .LVU115
 305:../usbn2mc/main/usbnapi.c ****     }
 397               		.loc 1 305 16 is_stmt 0 view .LVU116
 398 010c 4B83      		std Y+3,r20
 399               	.LVL15:
 400               	.L16:
 307:../usbn2mc/main/usbnapi.c ****   }
 401               		.loc 1 307 5 is_stmt 1 view .LVU117
 307:../usbn2mc/main/usbnapi.c ****   }
 402               		.loc 1 307 8 is_stmt 0 view .LVU118
 403 010e 0780      		ldd __tmp_reg__,Z+7
 404 0110 F085      		ldd r31,Z+8
 405 0112 E02D      		mov r30,__tmp_reg__
 406               	.LVL16:
 307:../usbn2mc/main/usbnapi.c ****   }
 407               		.loc 1 307 8 view .LVU119
 408 0114 00C0      		rjmp .L15
 409               		.cfi_endproc
 410               	.LFE29:
 412               	.global	USBNNackEvent
 414               	USBNNackEvent:
 415               	.LVL17:
 416               	.LFB32:
 310:../usbn2mc/main/usbnapi.c **** 
 311:../usbn2mc/main/usbnapi.c **** // add out endpoint
 312:../usbn2mc/main/usbnapi.c **** void USBNAddOutEndpoint(int configuration, int interface, int epnr, 
 313:../usbn2mc/main/usbnapi.c **** 			int epadr, char attr, int fifosize, int intervall, void *fkt)
 314:../usbn2mc/main/usbnapi.c **** {
 315:../usbn2mc/main/usbnapi.c ****   // FIXME (must be defined when set configuration is called)
 316:../usbn2mc/main/usbnapi.c ****   switch(epnr)
 317:../usbn2mc/main/usbnapi.c ****   {
 318:../usbn2mc/main/usbnapi.c ****     case 1: rxfifos.rx1=1; rxfifos.func1 = fkt; break;
 319:../usbn2mc/main/usbnapi.c ****     case 2: rxfifos.rx2=1; rxfifos.func2 = fkt; break;
 320:../usbn2mc/main/usbnapi.c ****     case 3: rxfifos.rx3=1; rxfifos.func3 = fkt; break;
 321:../usbn2mc/main/usbnapi.c ****   }
 322:../usbn2mc/main/usbnapi.c **** 
 323:../usbn2mc/main/usbnapi.c ****   _USBNAddEndpoint(configuration,interface,epnr,epadr,attr,fifosize,intervall);
 324:../usbn2mc/main/usbnapi.c **** }
 325:../usbn2mc/main/usbnapi.c **** 
 326:../usbn2mc/main/usbnapi.c **** // add in endpoint
 327:../usbn2mc/main/usbnapi.c **** void USBNAddInEndpoint(int configuration, int interface, int epnr, 
 328:../usbn2mc/main/usbnapi.c **** 			int epadr,char attr, int fifosize, int intervall, void *fkt)
 329:../usbn2mc/main/usbnapi.c **** {
 330:../usbn2mc/main/usbnapi.c ****   // FIXME (must be defined when set configuration is called)
 331:../usbn2mc/main/usbnapi.c ****   if(fkt!=NULL)
 332:../usbn2mc/main/usbnapi.c ****   {
 333:../usbn2mc/main/usbnapi.c ****     switch(epnr)
 334:../usbn2mc/main/usbnapi.c ****     {
 335:../usbn2mc/main/usbnapi.c ****       case 1: txfifos.tx1=1; txfifos.func1 = fkt; break;
 336:../usbn2mc/main/usbnapi.c ****       case 2: txfifos.tx2=1; txfifos.func2 = fkt; break;
 337:../usbn2mc/main/usbnapi.c ****       case 3: txfifos.tx3=1; txfifos.func3 = fkt; break;
 338:../usbn2mc/main/usbnapi.c ****     }
 339:../usbn2mc/main/usbnapi.c ****   }
 340:../usbn2mc/main/usbnapi.c **** 
 341:../usbn2mc/main/usbnapi.c ****   _USBNAddEndpoint(configuration,interface,epnr,epadr+0x80,attr,fifosize,intervall);
 342:../usbn2mc/main/usbnapi.c **** }
 343:../usbn2mc/main/usbnapi.c **** 
 344:../usbn2mc/main/usbnapi.c **** 
 345:../usbn2mc/main/usbnapi.c **** void USBNNackEvent(void *callback)
 346:../usbn2mc/main/usbnapi.c **** {
 417               		.loc 1 346 1 is_stmt 1 view -0
 418               		.cfi_startproc
 419               	/* prologue: function */
 420               	/* frame size = 0 */
 421               	/* stack size = 0 */
 422               	.L__stack_usage = 0
 347:../usbn2mc/main/usbnapi.c ****    rxfifos.nack_callback = callback;
 423               		.loc 1 347 4 view .LVU121
 424               		.loc 1 347 26 is_stmt 0 view .LVU122
 425 0116 9093 0000 		sts rxfifos+9+1,r25
 426 011a 8093 0000 		sts rxfifos+9,r24
 427               	/* epilogue start */
 348:../usbn2mc/main/usbnapi.c **** }
 428               		.loc 1 348 1 view .LVU123
 429 011e 0895      		ret
 430               		.cfi_endproc
 431               	.LFE32:
 433               	.global	_USBNCreateConfDescrField
 435               	_USBNCreateConfDescrField:
 436               	.LFB34:
 349:../usbn2mc/main/usbnapi.c **** 
 350:../usbn2mc/main/usbnapi.c **** 
 351:../usbn2mc/main/usbnapi.c **** void _USBNAddEndpoint(int configuration, int interface, int epnr, int epadr,char attr, int fifosize
 352:../usbn2mc/main/usbnapi.c **** {
 353:../usbn2mc/main/usbnapi.c **** 
 354:../usbn2mc/main/usbnapi.c ****   // update  interface endpoint list
 355:../usbn2mc/main/usbnapi.c ****   struct list_entry *ptr = DescriptorList;
 356:../usbn2mc/main/usbnapi.c ****   char *values; 	      
 357:../usbn2mc/main/usbnapi.c ****   while(ptr != NULL) {
 358:../usbn2mc/main/usbnapi.c ****     values = (char*)ptr->data;	      
 359:../usbn2mc/main/usbnapi.c ****     if(configuration==ptr->conf && ptr->index==interface && ptr->type==0x04) // if descr = confi 
 360:../usbn2mc/main/usbnapi.c ****       values[4]++;
 361:../usbn2mc/main/usbnapi.c ****     ptr=ptr->next;
 362:../usbn2mc/main/usbnapi.c ****   }
 363:../usbn2mc/main/usbnapi.c ****   
 364:../usbn2mc/main/usbnapi.c **** 
 365:../usbn2mc/main/usbnapi.c ****   struct usb_endpoint_descriptor* endpoint;
 366:../usbn2mc/main/usbnapi.c ****   endpoint = (struct usb_endpoint_descriptor*)malloc(sizeof(struct usb_endpoint_descriptor));
 367:../usbn2mc/main/usbnapi.c ****   endpoint->bLength=sizeof(struct usb_endpoint_descriptor);
 368:../usbn2mc/main/usbnapi.c ****   endpoint->bDescriptorType   = ENDPOINT;
 369:../usbn2mc/main/usbnapi.c ****   endpoint->bEndpointAddress   = (unsigned char)epadr;
 370:../usbn2mc/main/usbnapi.c ****   endpoint->bmAttributes       = attr;
 371:../usbn2mc/main/usbnapi.c ****   endpoint->wMaxPacketSize    = (short int)fifosize;  
 372:../usbn2mc/main/usbnapi.c ****   endpoint->bIntervall        = (unsigned char)intervall;  
 373:../usbn2mc/main/usbnapi.c ****   
 374:../usbn2mc/main/usbnapi.c ****   _USBNAddToList((void*)endpoint, 0x07,ENDPOINT,
 375:../usbn2mc/main/usbnapi.c **** 		    (uint8_t)configuration,(uint8_t)interface,0);
 376:../usbn2mc/main/usbnapi.c **** }
 377:../usbn2mc/main/usbnapi.c **** 
 378:../usbn2mc/main/usbnapi.c **** // *******************************************************************
 379:../usbn2mc/main/usbnapi.c **** // put configuration/interface and ep descr in a linear field
 380:../usbn2mc/main/usbnapi.c **** // ********************************************************************
 381:../usbn2mc/main/usbnapi.c **** void _USBNCreateConfDescrField(void)
 382:../usbn2mc/main/usbnapi.c **** {
 437               		.loc 1 382 1 is_stmt 1 view -0
 438               		.cfi_startproc
 439 0120 6F92      		push r6
 440               		.cfi_def_cfa_offset 3
 441               		.cfi_offset 6, -2
 442 0122 7F92      		push r7
 443               		.cfi_def_cfa_offset 4
 444               		.cfi_offset 7, -3
 445 0124 8F92      		push r8
 446               		.cfi_def_cfa_offset 5
 447               		.cfi_offset 8, -4
 448 0126 9F92      		push r9
 449               		.cfi_def_cfa_offset 6
 450               		.cfi_offset 9, -5
 451 0128 AF92      		push r10
 452               		.cfi_def_cfa_offset 7
 453               		.cfi_offset 10, -6
 454 012a BF92      		push r11
 455               		.cfi_def_cfa_offset 8
 456               		.cfi_offset 11, -7
 457 012c CF92      		push r12
 458               		.cfi_def_cfa_offset 9
 459               		.cfi_offset 12, -8
 460 012e DF92      		push r13
 461               		.cfi_def_cfa_offset 10
 462               		.cfi_offset 13, -9
 463 0130 EF92      		push r14
 464               		.cfi_def_cfa_offset 11
 465               		.cfi_offset 14, -10
 466 0132 FF92      		push r15
 467               		.cfi_def_cfa_offset 12
 468               		.cfi_offset 15, -11
 469 0134 0F93      		push r16
 470               		.cfi_def_cfa_offset 13
 471               		.cfi_offset 16, -12
 472 0136 1F93      		push r17
 473               		.cfi_def_cfa_offset 14
 474               		.cfi_offset 17, -13
 475 0138 CF93      		push r28
 476               		.cfi_def_cfa_offset 15
 477               		.cfi_offset 28, -14
 478 013a DF93      		push r29
 479               		.cfi_def_cfa_offset 16
 480               		.cfi_offset 29, -15
 481               	/* prologue: function */
 482               	/* frame size = 0 */
 483               	/* stack size = 14 */
 484               	.L__stack_usage = 14
 383:../usbn2mc/main/usbnapi.c ****   struct list_entry *ptr;
 485               		.loc 1 383 3 view .LVU125
 384:../usbn2mc/main/usbnapi.c ****   
 385:../usbn2mc/main/usbnapi.c ****   int conf=0;
 486               		.loc 1 385 3 view .LVU126
 487               	.LVL18:
 386:../usbn2mc/main/usbnapi.c ****   int i,j,x;
 488               		.loc 1 386 3 view .LVU127
 387:../usbn2mc/main/usbnapi.c ****   int desclen=0x09;
 489               		.loc 1 387 3 view .LVU128
 388:../usbn2mc/main/usbnapi.c ****   int index,len;
 490               		.loc 1 388 3 view .LVU129
 389:../usbn2mc/main/usbnapi.c ****   char *values=NULL;
 491               		.loc 1 389 3 view .LVU130
 390:../usbn2mc/main/usbnapi.c ****   char *actualconf=NULL;
 492               		.loc 1 390 3 view .LVU131
 391:../usbn2mc/main/usbnapi.c **** 
 392:../usbn2mc/main/usbnapi.c **** 
 393:../usbn2mc/main/usbnapi.c ****   // number of configurations
 394:../usbn2mc/main/usbnapi.c ****   ptr = DescriptorList;
 493               		.loc 1 394 3 view .LVU132
 494               		.loc 1 394 7 is_stmt 0 view .LVU133
 495 013c E090 0000 		lds r14,DescriptorList
 496 0140 F090 0000 		lds r15,DescriptorList+1
 497               	.LVL19:
 395:../usbn2mc/main/usbnapi.c ****   while(ptr != NULL) {
 498               		.loc 1 395 3 is_stmt 1 view .LVU134
 385:../usbn2mc/main/usbnapi.c ****   int i,j,x;
 499               		.loc 1 385 7 is_stmt 0 view .LVU135
 500 0144 612C      		mov r6,__zero_reg__
 501 0146 712C      		mov r7,__zero_reg__
 502               	.LVL20:
 503               	.L20:
 504               		.loc 1 395 13 is_stmt 1 view .LVU136
 505 0148 E114      		cp r14,__zero_reg__
 506 014a F104      		cpc r15,__zero_reg__
 507 014c 01F4      		brne .L22
 396:../usbn2mc/main/usbnapi.c ****     if(ptr->type==0x02)
 397:../usbn2mc/main/usbnapi.c ****       conf++;
 398:../usbn2mc/main/usbnapi.c ****     ptr=ptr->next;
 399:../usbn2mc/main/usbnapi.c ****   }
 400:../usbn2mc/main/usbnapi.c ****   
 401:../usbn2mc/main/usbnapi.c ****   // now get the array with the numbers of configurations 
 402:../usbn2mc/main/usbnapi.c ****   FinalConfigurationArray = (char**)malloc(sizeof(char*)*conf);
 508               		.loc 1 402 3 view .LVU137
 509               		.loc 1 402 37 is_stmt 0 view .LVU138
 510 014e 8301      		movw r16,r6
 511 0150 000F      		lsl r16
 512 0152 111F      		rol r17
 513 0154 C801      		movw r24,r16
 514 0156 0E94 0000 		call malloc
 515               	.LVL21:
 516               		.loc 1 402 27 discriminator 1 view .LVU139
 517 015a 9093 0000 		sts FinalConfigurationArray+1,r25
 518 015e 8093 0000 		sts FinalConfigurationArray,r24
 403:../usbn2mc/main/usbnapi.c **** 
 404:../usbn2mc/main/usbnapi.c ****   // get space and copy configuration to finalarray
 405:../usbn2mc/main/usbnapi.c ****   // length for every configuration
 406:../usbn2mc/main/usbnapi.c ****   for(i=1;i<=conf;i++)
 519               		.loc 1 406 3 is_stmt 1 view .LVU140
 520               	.LVL22:
 407:../usbn2mc/main/usbnapi.c ****   {
 408:../usbn2mc/main/usbnapi.c ****     ptr = DescriptorList;
 409:../usbn2mc/main/usbnapi.c ****     desclen=0x09;
 410:../usbn2mc/main/usbnapi.c ****     while(ptr != NULL) 
 411:../usbn2mc/main/usbnapi.c ****     {
 412:../usbn2mc/main/usbnapi.c ****       values = (char*)ptr->data;	      
 413:../usbn2mc/main/usbnapi.c ****       if(ptr->conf==i)
 414:../usbn2mc/main/usbnapi.c **** 	desclen=desclen+ptr->len;
 415:../usbn2mc/main/usbnapi.c **** 
 416:../usbn2mc/main/usbnapi.c ****       // bConfigurationValue = value[5] = number of configuration
 417:../usbn2mc/main/usbnapi.c ****       if((values[5]==(char)i) && (ptr->type==0x02))
 418:../usbn2mc/main/usbnapi.c ****       {
 419:../usbn2mc/main/usbnapi.c **** 	actualconf = values;
 420:../usbn2mc/main/usbnapi.c ****       }	
 421:../usbn2mc/main/usbnapi.c ****       ptr=ptr->next;
 422:../usbn2mc/main/usbnapi.c ****     }
 423:../usbn2mc/main/usbnapi.c ****     // reserve memory for every configuration descriptor
 424:../usbn2mc/main/usbnapi.c ****     FinalConfigurationArray[conf-1] = (char*)malloc(sizeof(char)*desclen);
 521               		.loc 1 424 28 is_stmt 0 view .LVU141
 522 0162 0250      		subi r16,2
 523 0164 1109      		sbc r17,__zero_reg__
 406:../usbn2mc/main/usbnapi.c ****   {
 524               		.loc 1 406 8 view .LVU142
 525 0166 CC24      		clr r12
 526 0168 C394      		inc r12
 527 016a D12C      		mov r13,__zero_reg__
 528               	.LVL23:
 529               	.L23:
 406:../usbn2mc/main/usbnapi.c ****   {
 530               		.loc 1 406 12 is_stmt 1 discriminator 1 view .LVU143
 531 016c 6C14      		cp r6,r12
 532 016e 7D04      		cpc r7,r13
 533 0170 04F4      		brge .L29
 534 0172 00E0      		ldi r16,0
 535 0174 10E0      		ldi r17,0
 425:../usbn2mc/main/usbnapi.c ****     
 426:../usbn2mc/main/usbnapi.c ****     // configuration descriptor
 427:../usbn2mc/main/usbnapi.c ****     
 428:../usbn2mc/main/usbnapi.c ****     len = 9; 
 429:../usbn2mc/main/usbnapi.c ****     for(index=0;index<len;index++)
 430:../usbn2mc/main/usbnapi.c ****       FinalConfigurationArray[conf-1][index] = actualconf[index];
 431:../usbn2mc/main/usbnapi.c ****       
 432:../usbn2mc/main/usbnapi.c ****     // update configuration total length
 433:../usbn2mc/main/usbnapi.c ****     FinalConfigurationArray[conf-1][2] = desclen; // FIXME
 434:../usbn2mc/main/usbnapi.c ****     //FinalConfigurationArray[conf-1][2] = desclen +9 ; //  old version
 435:../usbn2mc/main/usbnapi.c ****   }
 436:../usbn2mc/main/usbnapi.c **** 
 437:../usbn2mc/main/usbnapi.c ****   // next index start`s here ( confi descr is always 9 signs long )
 438:../usbn2mc/main/usbnapi.c ****   index = 9;
 439:../usbn2mc/main/usbnapi.c ****   int numofinterf=0;
 536               		.loc 1 439 7 is_stmt 0 view .LVU144
 537 0176 A12C      		mov r10,__zero_reg__
 538 0178 B12C      		mov r11,__zero_reg__
 438:../usbn2mc/main/usbnapi.c ****   int numofinterf=0;
 539               		.loc 1 438 9 view .LVU145
 540 017a 29E0      		ldi r18,lo8(9)
 541 017c 30E0      		ldi r19,0
 440:../usbn2mc/main/usbnapi.c ****   struct list_entry *findep;
 441:../usbn2mc/main/usbnapi.c ****   char *endpoint;
 442:../usbn2mc/main/usbnapi.c ****   // copy interface and endpoint descr
 443:../usbn2mc/main/usbnapi.c ****   for(i=1;i<=conf;i++)
 542               		.loc 1 443 8 view .LVU146
 543 017e 81E0      		ldi r24,lo8(1)
 544 0180 90E0      		ldi r25,0
 545               	.LVL24:
 546               	.L30:
 547               		.loc 1 443 12 is_stmt 1 discriminator 1 view .LVU147
 548 0182 6816      		cp r6,r24
 549 0184 7906      		cpc r7,r25
 550 0186 04F0      		brlt .+2
 551 0188 00C0      		rjmp .L45
 552               	/* epilogue start */
 444:../usbn2mc/main/usbnapi.c ****   {
 445:../usbn2mc/main/usbnapi.c ****     // get number of interfaces
 446:../usbn2mc/main/usbnapi.c ****     ptr = DescriptorList;
 447:../usbn2mc/main/usbnapi.c ****     while(ptr != NULL) 
 448:../usbn2mc/main/usbnapi.c ****     {
 449:../usbn2mc/main/usbnapi.c ****       values = (char*)ptr->data;	      
 450:../usbn2mc/main/usbnapi.c ****       if(values[1]==0x02 && values[5]==i)
 451:../usbn2mc/main/usbnapi.c ****       {
 452:../usbn2mc/main/usbnapi.c **** 	numofinterf = values[4];
 453:../usbn2mc/main/usbnapi.c **** 	break;
 454:../usbn2mc/main/usbnapi.c ****       }
 455:../usbn2mc/main/usbnapi.c ****       ptr=ptr->next;
 456:../usbn2mc/main/usbnapi.c ****     }
 457:../usbn2mc/main/usbnapi.c **** 
 458:../usbn2mc/main/usbnapi.c ****     // go through interfaces
 459:../usbn2mc/main/usbnapi.c ****     for(j=1;j<=numofinterf;j++)
 460:../usbn2mc/main/usbnapi.c ****     {
 461:../usbn2mc/main/usbnapi.c ****       // find interface
 462:../usbn2mc/main/usbnapi.c ****       ptr = DescriptorList;
 463:../usbn2mc/main/usbnapi.c ****       while(ptr != NULL) 
 464:../usbn2mc/main/usbnapi.c ****       {
 465:../usbn2mc/main/usbnapi.c **** 	values = (char*)ptr->data;	      
 466:../usbn2mc/main/usbnapi.c **** 	//if(values[1]==0x04 && values[2]==j && ptr->conf==i)
 467:../usbn2mc/main/usbnapi.c **** 	if(values[1]==0x04 && ptr->index==j && ptr->conf==i)
 468:../usbn2mc/main/usbnapi.c **** 	{
 469:../usbn2mc/main/usbnapi.c **** 	  // *** copy interface
 470:../usbn2mc/main/usbnapi.c **** 	  for(x=0;x<9;x++)
 471:../usbn2mc/main/usbnapi.c **** 	  {
 472:../usbn2mc/main/usbnapi.c **** 	    FinalConfigurationArray[i-1][index] = values[x];
 473:../usbn2mc/main/usbnapi.c **** 	    index++;
 474:../usbn2mc/main/usbnapi.c **** 	  }
 475:../usbn2mc/main/usbnapi.c **** 	  // get number of endpoints = values[4]
 476:../usbn2mc/main/usbnapi.c **** 	  //for(k=0;k<values[4];k++)
 477:../usbn2mc/main/usbnapi.c **** 	  //{
 478:../usbn2mc/main/usbnapi.c **** 	    // *** copy endpoints 
 479:../usbn2mc/main/usbnapi.c **** 	    findep = DescriptorList;
 480:../usbn2mc/main/usbnapi.c **** 	    while(findep!=NULL)
 481:../usbn2mc/main/usbnapi.c **** 	    {
 482:../usbn2mc/main/usbnapi.c **** 	      if(findep->type==0x05 && findep->conf==i && findep->interf==j)
 483:../usbn2mc/main/usbnapi.c **** 	      {
 484:../usbn2mc/main/usbnapi.c **** 		//USBNDebug("copy ep\r\n");
 485:../usbn2mc/main/usbnapi.c **** 		endpoint = (char*)findep->data;	      
 486:../usbn2mc/main/usbnapi.c **** 		for(x=0;x<7;x++)
 487:../usbn2mc/main/usbnapi.c **** 		{
 488:../usbn2mc/main/usbnapi.c **** 		  FinalConfigurationArray[i-1][index] = endpoint[x];
 489:../usbn2mc/main/usbnapi.c **** 		  index++;
 490:../usbn2mc/main/usbnapi.c **** 		}
 491:../usbn2mc/main/usbnapi.c **** 		
 492:../usbn2mc/main/usbnapi.c **** 	      }
 493:../usbn2mc/main/usbnapi.c **** 	      findep = findep->next;
 494:../usbn2mc/main/usbnapi.c **** 	    }
 495:../usbn2mc/main/usbnapi.c **** 	  
 496:../usbn2mc/main/usbnapi.c **** 	  //}
 497:../usbn2mc/main/usbnapi.c **** 	}
 498:../usbn2mc/main/usbnapi.c **** 	ptr=ptr->next;
 499:../usbn2mc/main/usbnapi.c ****       }
 500:../usbn2mc/main/usbnapi.c ****     }
 501:../usbn2mc/main/usbnapi.c **** 
 502:../usbn2mc/main/usbnapi.c ****   }
 503:../usbn2mc/main/usbnapi.c **** 
 504:../usbn2mc/main/usbnapi.c **** //  for(i=0;i<32;i++)
 505:../usbn2mc/main/usbnapi.c **** //    SendHex(FinalConfigurationArray[0][i]);
 506:../usbn2mc/main/usbnapi.c **** }
 553               		.loc 1 506 1 is_stmt 0 view .LVU148
 554 018a DF91      		pop r29
 555 018c CF91      		pop r28
 556 018e 1F91      		pop r17
 557 0190 0F91      		pop r16
 558 0192 FF90      		pop r15
 559 0194 EF90      		pop r14
 560 0196 DF90      		pop r13
 561 0198 CF90      		pop r12
 562 019a BF90      		pop r11
 563 019c AF90      		pop r10
 564 019e 9F90      		pop r9
 565 01a0 8F90      		pop r8
 566 01a2 7F90      		pop r7
 567 01a4 6F90      		pop r6
 568               	.LVL25:
 569               		.loc 1 506 1 view .LVU149
 570 01a6 0895      		ret
 571               	.LVL26:
 572               	.L22:
 396:../usbn2mc/main/usbnapi.c ****       conf++;
 573               		.loc 1 396 5 is_stmt 1 view .LVU150
 396:../usbn2mc/main/usbnapi.c ****       conf++;
 574               		.loc 1 396 7 is_stmt 0 view .LVU151
 575 01a8 E701      		movw r28,r14
 576 01aa 8A81      		ldd r24,Y+2
 577 01ac 8230      		cpi r24,lo8(2)
 578 01ae 01F4      		brne .L21
 397:../usbn2mc/main/usbnapi.c ****     ptr=ptr->next;
 579               		.loc 1 397 7 is_stmt 1 view .LVU152
 397:../usbn2mc/main/usbnapi.c ****     ptr=ptr->next;
 580               		.loc 1 397 11 is_stmt 0 view .LVU153
 581 01b0 DFEF      		ldi r29,-1
 582 01b2 6D1A      		sub r6,r29
 583 01b4 7D0A      		sbc r7,r29
 584               	.LVL27:
 585               	.L21:
 398:../usbn2mc/main/usbnapi.c ****   }
 586               		.loc 1 398 5 is_stmt 1 view .LVU154
 398:../usbn2mc/main/usbnapi.c ****   }
 587               		.loc 1 398 8 is_stmt 0 view .LVU155
 588 01b6 F701      		movw r30,r14
 589 01b8 E780      		ldd r14,Z+7
 590 01ba F084      		ldd r15,Z+8
 591               	.LVL28:
 398:../usbn2mc/main/usbnapi.c ****   }
 592               		.loc 1 398 8 view .LVU156
 593 01bc 00C0      		rjmp .L20
 594               	.LVL29:
 595               	.L29:
 408:../usbn2mc/main/usbnapi.c ****     desclen=0x09;
 596               		.loc 1 408 5 is_stmt 1 view .LVU157
 408:../usbn2mc/main/usbnapi.c ****     desclen=0x09;
 597               		.loc 1 408 9 is_stmt 0 view .LVU158
 598 01be E091 0000 		lds r30,DescriptorList
 599 01c2 F091 0000 		lds r31,DescriptorList+1
 600               	.LVL30:
 409:../usbn2mc/main/usbnapi.c ****     while(ptr != NULL) 
 601               		.loc 1 409 5 is_stmt 1 view .LVU159
 410:../usbn2mc/main/usbnapi.c ****     {
 602               		.loc 1 410 5 view .LVU160
 409:../usbn2mc/main/usbnapi.c ****     while(ptr != NULL) 
 603               		.loc 1 409 12 is_stmt 0 view .LVU161
 604 01c6 89E0      		ldi r24,lo8(9)
 605 01c8 882E      		mov r8,r24
 606 01ca 912C      		mov r9,__zero_reg__
 607               	.LVL31:
 608               	.L24:
 410:../usbn2mc/main/usbnapi.c ****     {
 609               		.loc 1 410 15 is_stmt 1 view .LVU162
 610 01cc 3097      		sbiw r30,0
 611 01ce 01F4      		brne .L27
 424:../usbn2mc/main/usbnapi.c ****     
 612               		.loc 1 424 5 view .LVU163
 424:../usbn2mc/main/usbnapi.c ****     
 613               		.loc 1 424 28 is_stmt 0 view .LVU164
 614 01d0 A090 0000 		lds r10,FinalConfigurationArray
 615 01d4 B090 0000 		lds r11,FinalConfigurationArray+1
 616 01d8 A00E      		add r10,r16
 617 01da B11E      		adc r11,r17
 424:../usbn2mc/main/usbnapi.c ****     
 618               		.loc 1 424 46 view .LVU165
 619 01dc C401      		movw r24,r8
 620 01de 0E94 0000 		call malloc
 621               	.LVL32:
 424:../usbn2mc/main/usbnapi.c ****     
 622               		.loc 1 424 37 discriminator 1 view .LVU166
 623 01e2 E501      		movw r28,r10
 624 01e4 9983      		std Y+1,r25
 625 01e6 8883      		st Y,r24
 428:../usbn2mc/main/usbnapi.c ****     for(index=0;index<len;index++)
 626               		.loc 1 428 5 is_stmt 1 view .LVU167
 627               	.LVL33:
 429:../usbn2mc/main/usbnapi.c ****       FinalConfigurationArray[conf-1][index] = actualconf[index];
 628               		.loc 1 429 5 view .LVU168
 429:../usbn2mc/main/usbnapi.c ****       FinalConfigurationArray[conf-1][index] = actualconf[index];
 629               		.loc 1 429 22 discriminator 1 view .LVU169
 630 01e8 D701      		movw r26,r14
 429:../usbn2mc/main/usbnapi.c ****       FinalConfigurationArray[conf-1][index] = actualconf[index];
 631               		.loc 1 429 14 is_stmt 0 view .LVU170
 632 01ea 80E0      		ldi r24,0
 633 01ec 90E0      		ldi r25,0
 634               	.LVL34:
 635               	.L28:
 430:../usbn2mc/main/usbnapi.c ****       
 636               		.loc 1 430 7 is_stmt 1 view .LVU171
 430:../usbn2mc/main/usbnapi.c ****       
 637               		.loc 1 430 58 is_stmt 0 view .LVU172
 638 01ee 2D91      		ld r18,X+
 430:../usbn2mc/main/usbnapi.c ****       
 639               		.loc 1 430 30 view .LVU173
 640 01f0 E091 0000 		lds r30,FinalConfigurationArray
 641 01f4 F091 0000 		lds r31,FinalConfigurationArray+1
 642 01f8 E00F      		add r30,r16
 643 01fa F11F      		adc r31,r17
 430:../usbn2mc/main/usbnapi.c ****       
 644               		.loc 1 430 46 view .LVU174
 645 01fc 0190      		ld __tmp_reg__,Z+
 646 01fe F081      		ld r31,Z
 647 0200 E02D      		mov r30,__tmp_reg__
 648 0202 E80F      		add r30,r24
 649 0204 F91F      		adc r31,r25
 650 0206 2083      		st Z,r18
 429:../usbn2mc/main/usbnapi.c ****       FinalConfigurationArray[conf-1][index] = actualconf[index];
 651               		.loc 1 429 32 is_stmt 1 discriminator 3 view .LVU175
 652 0208 0196      		adiw r24,1
 653               	.LVL35:
 429:../usbn2mc/main/usbnapi.c ****       FinalConfigurationArray[conf-1][index] = actualconf[index];
 654               		.loc 1 429 22 discriminator 1 view .LVU176
 655 020a 8930      		cpi r24,9
 656 020c 9105      		cpc r25,__zero_reg__
 657 020e 01F4      		brne .L28
 433:../usbn2mc/main/usbnapi.c ****     //FinalConfigurationArray[conf-1][2] = desclen +9 ; //  old version
 658               		.loc 1 433 5 view .LVU177
 433:../usbn2mc/main/usbnapi.c ****     //FinalConfigurationArray[conf-1][2] = desclen +9 ; //  old version
 659               		.loc 1 433 28 is_stmt 0 view .LVU178
 660 0210 E091 0000 		lds r30,FinalConfigurationArray
 661 0214 F091 0000 		lds r31,FinalConfigurationArray+1
 662 0218 E00F      		add r30,r16
 663 021a F11F      		adc r31,r17
 664 021c 0190      		ld __tmp_reg__,Z+
 665 021e F081      		ld r31,Z
 666 0220 E02D      		mov r30,__tmp_reg__
 433:../usbn2mc/main/usbnapi.c ****     //FinalConfigurationArray[conf-1][2] = desclen +9 ; //  old version
 667               		.loc 1 433 40 view .LVU179
 668 0222 8282      		std Z+2,r8
 406:../usbn2mc/main/usbnapi.c ****   {
 669               		.loc 1 406 20 is_stmt 1 discriminator 2 view .LVU180
 670 0224 DFEF      		ldi r29,-1
 671 0226 CD1A      		sub r12,r29
 672 0228 DD0A      		sbc r13,r29
 673               	.LVL36:
 406:../usbn2mc/main/usbnapi.c ****   {
 674               		.loc 1 406 20 is_stmt 0 discriminator 2 view .LVU181
 675 022a 00C0      		rjmp .L23
 676               	.LVL37:
 677               	.L27:
 412:../usbn2mc/main/usbnapi.c ****       if(ptr->conf==i)
 678               		.loc 1 412 7 is_stmt 1 view .LVU182
 412:../usbn2mc/main/usbnapi.c ****       if(ptr->conf==i)
 679               		.loc 1 412 14 is_stmt 0 view .LVU183
 680 022c A081      		ld r26,Z
 681 022e B181      		ldd r27,Z+1
 682               	.LVL38:
 413:../usbn2mc/main/usbnapi.c **** 	desclen=desclen+ptr->len;
 683               		.loc 1 413 7 is_stmt 1 view .LVU184
 413:../usbn2mc/main/usbnapi.c **** 	desclen=desclen+ptr->len;
 684               		.loc 1 413 13 is_stmt 0 view .LVU185
 685 0230 8481      		ldd r24,Z+4
 413:../usbn2mc/main/usbnapi.c **** 	desclen=desclen+ptr->len;
 686               		.loc 1 413 9 view .LVU186
 687 0232 8C15      		cp r24,r12
 688 0234 1D04      		cpc __zero_reg__,r13
 689 0236 01F4      		brne .L25
 414:../usbn2mc/main/usbnapi.c **** 
 690               		.loc 1 414 2 is_stmt 1 view .LVU187
 414:../usbn2mc/main/usbnapi.c **** 
 691               		.loc 1 414 21 is_stmt 0 view .LVU188
 692 0238 8381      		ldd r24,Z+3
 414:../usbn2mc/main/usbnapi.c **** 
 693               		.loc 1 414 9 view .LVU189
 694 023a 880E      		add r8,r24
 695 023c 911C      		adc r9,__zero_reg__
 696               	.LVL39:
 697               	.L25:
 417:../usbn2mc/main/usbnapi.c ****       {
 698               		.loc 1 417 7 is_stmt 1 view .LVU190
 417:../usbn2mc/main/usbnapi.c ****       {
 699               		.loc 1 417 9 is_stmt 0 view .LVU191
 700 023e 1596      		adiw r26,5
 701 0240 8C91      		ld r24,X
 702 0242 1597      		sbiw r26,5
 703 0244 8C11      		cpse r24,r12
 704 0246 00C0      		rjmp .L26
 417:../usbn2mc/main/usbnapi.c ****       {
 705               		.loc 1 417 31 discriminator 1 view .LVU192
 706 0248 8281      		ldd r24,Z+2
 707 024a 8230      		cpi r24,lo8(2)
 708 024c 01F4      		brne .L26
 419:../usbn2mc/main/usbnapi.c ****       }	
 709               		.loc 1 419 13 view .LVU193
 710 024e 7D01      		movw r14,r26
 711               	.LVL40:
 712               	.L26:
 421:../usbn2mc/main/usbnapi.c ****     }
 713               		.loc 1 421 7 is_stmt 1 view .LVU194
 421:../usbn2mc/main/usbnapi.c ****     }
 714               		.loc 1 421 10 is_stmt 0 view .LVU195
 715 0250 0780      		ldd __tmp_reg__,Z+7
 716 0252 F085      		ldd r31,Z+8
 717 0254 E02D      		mov r30,__tmp_reg__
 718               	.LVL41:
 421:../usbn2mc/main/usbnapi.c ****     }
 719               		.loc 1 421 10 view .LVU196
 720 0256 00C0      		rjmp .L24
 721               	.LVL42:
 722               	.L45:
 446:../usbn2mc/main/usbnapi.c ****     while(ptr != NULL) 
 723               		.loc 1 446 5 is_stmt 1 view .LVU197
 446:../usbn2mc/main/usbnapi.c ****     while(ptr != NULL) 
 724               		.loc 1 446 9 is_stmt 0 view .LVU198
 725 0258 E091 0000 		lds r30,DescriptorList
 726 025c F091 0000 		lds r31,DescriptorList+1
 727               	.LVL43:
 447:../usbn2mc/main/usbnapi.c ****     {
 728               		.loc 1 447 5 is_stmt 1 view .LVU199
 729               	.L31:
 447:../usbn2mc/main/usbnapi.c ****     {
 730               		.loc 1 447 15 view .LVU200
 731 0260 3097      		sbiw r30,0
 732 0262 01F0      		breq .L33
 449:../usbn2mc/main/usbnapi.c ****       if(values[1]==0x02 && values[5]==i)
 733               		.loc 1 449 7 view .LVU201
 449:../usbn2mc/main/usbnapi.c ****       if(values[1]==0x02 && values[5]==i)
 734               		.loc 1 449 14 is_stmt 0 view .LVU202
 735 0264 A081      		ld r26,Z
 736 0266 B181      		ldd r27,Z+1
 737               	.LVL44:
 450:../usbn2mc/main/usbnapi.c ****       {
 738               		.loc 1 450 7 is_stmt 1 view .LVU203
 450:../usbn2mc/main/usbnapi.c ****       {
 739               		.loc 1 450 9 is_stmt 0 view .LVU204
 740 0268 1196      		adiw r26,1
 741 026a 4C91      		ld r20,X
 742 026c 1197      		sbiw r26,1
 743 026e 4230      		cpi r20,lo8(2)
 744 0270 01F4      		brne .L32
 450:../usbn2mc/main/usbnapi.c ****       {
 745               		.loc 1 450 35 discriminator 1 view .LVU205
 746 0272 1596      		adiw r26,5
 747 0274 4C91      		ld r20,X
 748 0276 1597      		sbiw r26,5
 450:../usbn2mc/main/usbnapi.c ****       {
 749               		.loc 1 450 26 discriminator 1 view .LVU206
 750 0278 4817      		cp r20,r24
 751 027a 1906      		cpc __zero_reg__,r25
 752 027c 01F4      		brne .L32
 452:../usbn2mc/main/usbnapi.c **** 	break;
 753               		.loc 1 452 2 is_stmt 1 view .LVU207
 452:../usbn2mc/main/usbnapi.c **** 	break;
 754               		.loc 1 452 14 is_stmt 0 view .LVU208
 755 027e 1496      		adiw r26,4
 756 0280 4C91      		ld r20,X
 757               	.LVL45:
 452:../usbn2mc/main/usbnapi.c **** 	break;
 758               		.loc 1 452 14 view .LVU209
 759 0282 A42E      		mov r10,r20
 760 0284 B12C      		mov r11,__zero_reg__
 453:../usbn2mc/main/usbnapi.c ****       }
 761               		.loc 1 453 2 is_stmt 1 view .LVU210
 762               	.LVL46:
 763               	.L33:
 459:../usbn2mc/main/usbnapi.c ****     {
 764               		.loc 1 459 5 view .LVU211
 459:../usbn2mc/main/usbnapi.c ****     {
 765               		.loc 1 459 10 is_stmt 0 view .LVU212
 766 0286 41E0      		ldi r20,lo8(1)
 767 0288 50E0      		ldi r21,0
 768               	.LVL47:
 769               	.L35:
 459:../usbn2mc/main/usbnapi.c ****     {
 770               		.loc 1 459 14 is_stmt 1 discriminator 1 view .LVU213
 771 028a A416      		cp r10,r20
 772 028c B506      		cpc r11,r21
 773 028e 04F4      		brge .L44
 443:../usbn2mc/main/usbnapi.c ****   {
 774               		.loc 1 443 20 discriminator 2 view .LVU214
 775               	.LVL48:
 443:../usbn2mc/main/usbnapi.c ****   {
 776               		.loc 1 443 20 is_stmt 0 discriminator 2 view .LVU215
 777 0290 0196      		adiw r24,1
 778               	.LVL49:
 443:../usbn2mc/main/usbnapi.c ****   {
 779               		.loc 1 443 20 discriminator 2 view .LVU216
 780 0292 0E5F      		subi r16,-2
 781 0294 1F4F      		sbci r17,-1
 782 0296 00C0      		rjmp .L30
 783               	.LVL50:
 784               	.L32:
 455:../usbn2mc/main/usbnapi.c ****     }
 785               		.loc 1 455 7 is_stmt 1 view .LVU217
 455:../usbn2mc/main/usbnapi.c ****     }
 786               		.loc 1 455 10 is_stmt 0 view .LVU218
 787 0298 0780      		ldd __tmp_reg__,Z+7
 788 029a F085      		ldd r31,Z+8
 789 029c E02D      		mov r30,__tmp_reg__
 790               	.LVL51:
 455:../usbn2mc/main/usbnapi.c ****     }
 791               		.loc 1 455 10 view .LVU219
 792 029e 00C0      		rjmp .L31
 793               	.LVL52:
 794               	.L44:
 462:../usbn2mc/main/usbnapi.c ****       while(ptr != NULL) 
 795               		.loc 1 462 7 is_stmt 1 view .LVU220
 462:../usbn2mc/main/usbnapi.c ****       while(ptr != NULL) 
 796               		.loc 1 462 11 is_stmt 0 view .LVU221
 797 02a0 A091 0000 		lds r26,DescriptorList
 798 02a4 B091 0000 		lds r27,DescriptorList+1
 799               	.LVL53:
 463:../usbn2mc/main/usbnapi.c ****       {
 800               		.loc 1 463 7 is_stmt 1 view .LVU222
 801               	.L36:
 463:../usbn2mc/main/usbnapi.c ****       {
 802               		.loc 1 463 17 view .LVU223
 803 02a8 1097      		sbiw r26,0
 804 02aa 01F4      		brne .L43
 459:../usbn2mc/main/usbnapi.c ****     {
 805               		.loc 1 459 29 discriminator 2 view .LVU224
 806 02ac 4F5F      		subi r20,-1
 807 02ae 5F4F      		sbci r21,-1
 808               	.LVL54:
 459:../usbn2mc/main/usbnapi.c ****     {
 809               		.loc 1 459 29 is_stmt 0 discriminator 2 view .LVU225
 810 02b0 00C0      		rjmp .L35
 811               	.LVL55:
 812               	.L43:
 465:../usbn2mc/main/usbnapi.c **** 	//if(values[1]==0x04 && values[2]==j && ptr->conf==i)
 813               		.loc 1 465 2 is_stmt 1 view .LVU226
 465:../usbn2mc/main/usbnapi.c **** 	//if(values[1]==0x04 && values[2]==j && ptr->conf==i)
 814               		.loc 1 465 9 is_stmt 0 view .LVU227
 815 02b2 ED91      		ld r30,X+
 816 02b4 FC91      		ld r31,X
 817 02b6 1197      		sbiw r26,1
 818               	.LVL56:
 467:../usbn2mc/main/usbnapi.c **** 	{
 819               		.loc 1 467 2 is_stmt 1 view .LVU228
 467:../usbn2mc/main/usbnapi.c **** 	{
 820               		.loc 1 467 4 is_stmt 0 view .LVU229
 821 02b8 6181      		ldd r22,Z+1
 822 02ba 6430      		cpi r22,lo8(4)
 823 02bc 01F4      		brne .L37
 467:../usbn2mc/main/usbnapi.c **** 	{
 824               		.loc 1 467 27 discriminator 1 view .LVU230
 825 02be 1696      		adiw r26,6
 826 02c0 6C91      		ld r22,X
 827 02c2 1697      		sbiw r26,6
 467:../usbn2mc/main/usbnapi.c **** 	{
 828               		.loc 1 467 21 discriminator 1 view .LVU231
 829 02c4 6417      		cp r22,r20
 830 02c6 1506      		cpc __zero_reg__,r21
 831 02c8 01F4      		brne .L37
 467:../usbn2mc/main/usbnapi.c **** 	{
 832               		.loc 1 467 44 discriminator 2 view .LVU232
 833 02ca 1496      		adiw r26,4
 834 02cc 6C91      		ld r22,X
 835 02ce 1497      		sbiw r26,4
 467:../usbn2mc/main/usbnapi.c **** 	{
 836               		.loc 1 467 38 discriminator 2 view .LVU233
 837 02d0 6817      		cp r22,r24
 838 02d2 1906      		cpc __zero_reg__,r25
 839 02d4 01F4      		brne .L37
 840 02d6 EF01      		movw r28,r30
 470:../usbn2mc/main/usbnapi.c **** 	  {
 841               		.loc 1 470 9 view .LVU234
 842 02d8 E12C      		mov r14,__zero_reg__
 843 02da F12C      		mov r15,__zero_reg__
 844               	.LVL57:
 845               	.L38:
 472:../usbn2mc/main/usbnapi.c **** 	    index++;
 846               		.loc 1 472 6 is_stmt 1 view .LVU235
 472:../usbn2mc/main/usbnapi.c **** 	    index++;
 847               		.loc 1 472 50 is_stmt 0 view .LVU236
 848 02dc D990      		ld r13,Y+
 472:../usbn2mc/main/usbnapi.c **** 	    index++;
 849               		.loc 1 472 29 view .LVU237
 850 02de 6091 0000 		lds r22,FinalConfigurationArray
 851 02e2 7091 0000 		lds r23,FinalConfigurationArray+1
 852 02e6 600F      		add r22,r16
 853 02e8 711F      		adc r23,r17
 472:../usbn2mc/main/usbnapi.c **** 	    index++;
 854               		.loc 1 472 42 view .LVU238
 855 02ea FB01      		movw r30,r22
 856 02ec 6081      		ld r22,Z
 857 02ee 7181      		ldd r23,Z+1
 858 02f0 620F      		add r22,r18
 859 02f2 731F      		adc r23,r19
 860 02f4 6E0D      		add r22,r14
 861 02f6 7F1D      		adc r23,r15
 862 02f8 FB01      		movw r30,r22
 863 02fa D082      		st Z,r13
 473:../usbn2mc/main/usbnapi.c **** 	  }
 864               		.loc 1 473 6 is_stmt 1 view .LVU239
 470:../usbn2mc/main/usbnapi.c **** 	  {
 865               		.loc 1 470 17 discriminator 3 view .LVU240
 866 02fc FFEF      		ldi r31,-1
 867 02fe EF1A      		sub r14,r31
 868 0300 FF0A      		sbc r15,r31
 869               	.LVL58:
 470:../usbn2mc/main/usbnapi.c **** 	  {
 870               		.loc 1 470 13 discriminator 1 view .LVU241
 871 0302 69E0      		ldi r22,9
 872 0304 E616      		cp r14,r22
 873 0306 F104      		cpc r15,__zero_reg__
 874 0308 01F4      		brne .L38
 875               	.LVL59:
 470:../usbn2mc/main/usbnapi.c **** 	  {
 876               		.loc 1 470 13 is_stmt 0 discriminator 1 view .LVU242
 877 030a 275F      		subi r18,-9
 878 030c 3F4F      		sbci r19,-1
 879               	.LVL60:
 479:../usbn2mc/main/usbnapi.c **** 	    while(findep!=NULL)
 880               		.loc 1 479 6 is_stmt 1 view .LVU243
 479:../usbn2mc/main/usbnapi.c **** 	    while(findep!=NULL)
 881               		.loc 1 479 13 is_stmt 0 view .LVU244
 882 030e E091 0000 		lds r30,DescriptorList
 883 0312 F091 0000 		lds r31,DescriptorList+1
 884               	.LVL61:
 480:../usbn2mc/main/usbnapi.c **** 	    {
 885               		.loc 1 480 6 is_stmt 1 view .LVU245
 886               	.L39:
 480:../usbn2mc/main/usbnapi.c **** 	    {
 887               		.loc 1 480 18 view .LVU246
 888 0316 3097      		sbiw r30,0
 889 0318 01F4      		brne .L42
 890               	.LVL62:
 891               	.L37:
 498:../usbn2mc/main/usbnapi.c ****       }
 892               		.loc 1 498 2 view .LVU247
 498:../usbn2mc/main/usbnapi.c ****       }
 893               		.loc 1 498 5 is_stmt 0 view .LVU248
 894 031a 1796      		adiw r26,7
 895 031c 0D90      		ld __tmp_reg__,X+
 896 031e BC91      		ld r27,X
 897 0320 A02D      		mov r26,__tmp_reg__
 898               	.LVL63:
 498:../usbn2mc/main/usbnapi.c ****       }
 899               		.loc 1 498 5 view .LVU249
 900 0322 00C0      		rjmp .L36
 901               	.LVL64:
 902               	.L42:
 482:../usbn2mc/main/usbnapi.c **** 	      {
 903               		.loc 1 482 8 is_stmt 1 view .LVU250
 482:../usbn2mc/main/usbnapi.c **** 	      {
 904               		.loc 1 482 10 is_stmt 0 view .LVU251
 905 0324 6281      		ldd r22,Z+2
 906 0326 6530      		cpi r22,lo8(5)
 907 0328 01F4      		brne .L40
 482:../usbn2mc/main/usbnapi.c **** 	      {
 908               		.loc 1 482 39 discriminator 1 view .LVU252
 909 032a 6481      		ldd r22,Z+4
 482:../usbn2mc/main/usbnapi.c **** 	      {
 910               		.loc 1 482 30 discriminator 1 view .LVU253
 911 032c 6817      		cp r22,r24
 912 032e 1906      		cpc __zero_reg__,r25
 913 0330 01F4      		brne .L40
 482:../usbn2mc/main/usbnapi.c **** 	      {
 914               		.loc 1 482 58 discriminator 2 view .LVU254
 915 0332 6581      		ldd r22,Z+5
 482:../usbn2mc/main/usbnapi.c **** 	      {
 916               		.loc 1 482 49 discriminator 2 view .LVU255
 917 0334 6417      		cp r22,r20
 918 0336 1506      		cpc __zero_reg__,r21
 919 0338 01F4      		brne .L40
 485:../usbn2mc/main/usbnapi.c **** 		for(x=0;x<7;x++)
 920               		.loc 1 485 3 is_stmt 1 view .LVU256
 921               	.LVL65:
 486:../usbn2mc/main/usbnapi.c **** 		{
 922               		.loc 1 486 3 view .LVU257
 486:../usbn2mc/main/usbnapi.c **** 		{
 923               		.loc 1 486 12 discriminator 1 view .LVU258
 924 033a C080      		ld r12,Z
 925 033c D180      		ldd r13,Z+1
 486:../usbn2mc/main/usbnapi.c **** 		{
 926               		.loc 1 486 8 is_stmt 0 view .LVU259
 927 033e E12C      		mov r14,__zero_reg__
 928 0340 F12C      		mov r15,__zero_reg__
 929               	.LVL66:
 930               	.L41:
 488:../usbn2mc/main/usbnapi.c **** 		  index++;
 931               		.loc 1 488 5 is_stmt 1 view .LVU260
 488:../usbn2mc/main/usbnapi.c **** 		  index++;
 932               		.loc 1 488 51 is_stmt 0 view .LVU261
 933 0342 E601      		movw r28,r12
 934 0344 9990      		ld r9,Y+
 935 0346 6E01      		movw r12,r28
 488:../usbn2mc/main/usbnapi.c **** 		  index++;
 936               		.loc 1 488 28 view .LVU262
 937 0348 6091 0000 		lds r22,FinalConfigurationArray
 938 034c 7091 0000 		lds r23,FinalConfigurationArray+1
 939 0350 600F      		add r22,r16
 940 0352 711F      		adc r23,r17
 488:../usbn2mc/main/usbnapi.c **** 		  index++;
 941               		.loc 1 488 41 view .LVU263
 942 0354 EB01      		movw r28,r22
 943 0356 6881      		ld r22,Y
 944 0358 7981      		ldd r23,Y+1
 945 035a 620F      		add r22,r18
 946 035c 731F      		adc r23,r19
 947 035e 6E0D      		add r22,r14
 948 0360 7F1D      		adc r23,r15
 949 0362 EB01      		movw r28,r22
 950 0364 9882      		st Y,r9
 489:../usbn2mc/main/usbnapi.c **** 		}
 951               		.loc 1 489 5 is_stmt 1 view .LVU264
 952               	.LVL67:
 486:../usbn2mc/main/usbnapi.c **** 		{
 953               		.loc 1 486 16 discriminator 3 view .LVU265
 954 0366 DFEF      		ldi r29,-1
 955 0368 ED1A      		sub r14,r29
 956 036a FD0A      		sbc r15,r29
 957               	.LVL68:
 486:../usbn2mc/main/usbnapi.c **** 		{
 958               		.loc 1 486 12 discriminator 1 view .LVU266
 959 036c 67E0      		ldi r22,7
 960 036e E616      		cp r14,r22
 961 0370 F104      		cpc r15,__zero_reg__
 962 0372 01F4      		brne .L41
 963               	.LVL69:
 486:../usbn2mc/main/usbnapi.c **** 		{
 964               		.loc 1 486 12 is_stmt 0 discriminator 1 view .LVU267
 965 0374 295F      		subi r18,-7
 966 0376 3F4F      		sbci r19,-1
 967               	.LVL70:
 968               	.L40:
 493:../usbn2mc/main/usbnapi.c **** 	    }
 969               		.loc 1 493 8 is_stmt 1 view .LVU268
 493:../usbn2mc/main/usbnapi.c **** 	    }
 970               		.loc 1 493 15 is_stmt 0 view .LVU269
 971 0378 0780      		ldd __tmp_reg__,Z+7
 972 037a F085      		ldd r31,Z+8
 973 037c E02D      		mov r30,__tmp_reg__
 974               	.LVL71:
 493:../usbn2mc/main/usbnapi.c **** 	    }
 975               		.loc 1 493 15 view .LVU270
 976 037e 00C0      		rjmp .L39
 977               		.cfi_endproc
 978               	.LFE34:
 980               	.global	_USBNCreateStringField
 982               	_USBNCreateStringField:
 983               	.LFB35:
 507:../usbn2mc/main/usbnapi.c **** 
 508:../usbn2mc/main/usbnapi.c **** 
 509:../usbn2mc/main/usbnapi.c **** 
 510:../usbn2mc/main/usbnapi.c **** void _USBNCreateStringField(void)
 511:../usbn2mc/main/usbnapi.c **** {
 984               		.loc 1 511 1 is_stmt 1 view -0
 985               		.cfi_startproc
 986 0380 EF92      		push r14
 987               		.cfi_def_cfa_offset 3
 988               		.cfi_offset 14, -2
 989 0382 FF92      		push r15
 990               		.cfi_def_cfa_offset 4
 991               		.cfi_offset 15, -3
 992 0384 0F93      		push r16
 993               		.cfi_def_cfa_offset 5
 994               		.cfi_offset 16, -4
 995 0386 1F93      		push r17
 996               		.cfi_def_cfa_offset 6
 997               		.cfi_offset 17, -5
 998 0388 CF93      		push r28
 999               		.cfi_def_cfa_offset 7
 1000               		.cfi_offset 28, -6
 1001 038a DF93      		push r29
 1002               		.cfi_def_cfa_offset 8
 1003               		.cfi_offset 29, -7
 1004               	/* prologue: function */
 1005               	/* frame size = 0 */
 1006               	/* stack size = 6 */
 1007               	.L__stack_usage = 6
 512:../usbn2mc/main/usbnapi.c ****   struct string_entry *tmp;
 1008               		.loc 1 512 3 view .LVU272
 513:../usbn2mc/main/usbnapi.c ****   int index=0;
 1009               		.loc 1 513 3 view .LVU273
 1010               	.LVL72:
 514:../usbn2mc/main/usbnapi.c ****   
 515:../usbn2mc/main/usbnapi.c ****   tmp = StringList;
 1011               		.loc 1 515 3 view .LVU274
 1012               		.loc 1 515 7 is_stmt 0 view .LVU275
 1013 038c C091 0000 		lds r28,StringList
 1014 0390 D091 0000 		lds r29,StringList+1
 1015               	.LVL73:
 516:../usbn2mc/main/usbnapi.c ****   while(tmp->next != NULL)
 1016               		.loc 1 516 3 is_stmt 1 view .LVU276
 515:../usbn2mc/main/usbnapi.c ****   while(tmp->next != NULL)
 1017               		.loc 1 515 7 is_stmt 0 view .LVU277
 1018 0394 FE01      		movw r30,r28
 513:../usbn2mc/main/usbnapi.c ****   
 1019               		.loc 1 513 7 view .LVU278
 1020 0396 80E0      		ldi r24,0
 1021 0398 90E0      		ldi r25,0
 1022               	.LVL74:
 1023               	.L51:
 1024               		.loc 1 516 19 is_stmt 1 view .LVU279
 1025               		.loc 1 516 12 is_stmt 0 view .LVU280
 1026 039a 0380      		ldd __tmp_reg__,Z+3
 1027 039c F481      		ldd r31,Z+4
 1028 039e E02D      		mov r30,__tmp_reg__
 1029               	.LVL75:
 517:../usbn2mc/main/usbnapi.c ****   {
 518:../usbn2mc/main/usbnapi.c ****     tmp=tmp->next;
 519:../usbn2mc/main/usbnapi.c ****     index++;
 1030               		.loc 1 519 10 view .LVU281
 1031 03a0 0196      		adiw r24,1
 1032               	.LVL76:
 516:../usbn2mc/main/usbnapi.c ****   {
 1033               		.loc 1 516 19 view .LVU282
 1034 03a2 3097      		sbiw r30,0
 1035 03a4 01F4      		brne .L51
 520:../usbn2mc/main/usbnapi.c ****   } 
 521:../usbn2mc/main/usbnapi.c ****   // memory for all string descriptors
 522:../usbn2mc/main/usbnapi.c ****   index++;
 1036               		.loc 1 522 3 is_stmt 1 view .LVU283
 1037               	.LVL77:
 523:../usbn2mc/main/usbnapi.c ****   FinalStringArray = (char**)malloc(sizeof(char*)*index);
 1038               		.loc 1 523 3 view .LVU284
 1039               		.loc 1 523 30 is_stmt 0 view .LVU285
 1040 03a6 880F      		lsl r24
 1041 03a8 991F      		rol r25
 1042               	.LVL78:
 1043               		.loc 1 523 30 view .LVU286
 1044 03aa 0E94 0000 		call malloc
 1045               	.LVL79:
 1046               		.loc 1 523 20 discriminator 1 view .LVU287
 1047 03ae 9093 0000 		sts FinalStringArray+1,r25
 1048 03b2 8093 0000 		sts FinalStringArray,r24
 524:../usbn2mc/main/usbnapi.c **** 
 525:../usbn2mc/main/usbnapi.c ****   int x;
 1049               		.loc 1 525 3 is_stmt 1 view .LVU288
 526:../usbn2mc/main/usbnapi.c ****   char *ptr;
 1050               		.loc 1 526 3 view .LVU289
 527:../usbn2mc/main/usbnapi.c ****   tmp = StringList;
 1051               		.loc 1 527 3 view .LVU290
 1052               	.LVL80:
 528:../usbn2mc/main/usbnapi.c ****   //USBNDebug("\r\n\r\n");
 529:../usbn2mc/main/usbnapi.c ****   int first=1;
 1053               		.loc 1 529 3 view .LVU291
 530:../usbn2mc/main/usbnapi.c ****   do
 1054               		.loc 1 530 3 view .LVU292
 531:../usbn2mc/main/usbnapi.c ****   {
 532:../usbn2mc/main/usbnapi.c ****     if(!first) 
 1055               		.loc 1 532 5 view .LVU293
 1056               	.L54:
 533:../usbn2mc/main/usbnapi.c ****       tmp=tmp->next;
 534:../usbn2mc/main/usbnapi.c ****     first=0;
 1057               		.loc 1 534 5 view .LVU294
 535:../usbn2mc/main/usbnapi.c **** 
 536:../usbn2mc/main/usbnapi.c ****     ptr = (char*)tmp->data;
 1058               		.loc 1 536 5 view .LVU295
 1059               		.loc 1 536 9 is_stmt 0 view .LVU296
 1060 03b6 0881      		ld r16,Y
 1061 03b8 1981      		ldd r17,Y+1
 1062               	.LVL81:
 537:../usbn2mc/main/usbnapi.c ****     //USBNDebug("string index: ");
 538:../usbn2mc/main/usbnapi.c ****     //SendHex(tmp->index);
 539:../usbn2mc/main/usbnapi.c ****     //USBNDebug(" length: ");
 540:../usbn2mc/main/usbnapi.c ****     //SendHex(ptr[0]);
 541:../usbn2mc/main/usbnapi.c ****     //USBNDebug("\r\n\r\n");
 542:../usbn2mc/main/usbnapi.c ****     FinalStringArray[tmp->index] = (char*)malloc(sizeof(char)*(int)ptr[0]);
 1063               		.loc 1 542 5 is_stmt 1 view .LVU297
 1064               		.loc 1 542 25 is_stmt 0 view .LVU298
 1065 03ba 8A81      		ldd r24,Y+2
 1066               		.loc 1 542 21 view .LVU299
 1067 03bc E090 0000 		lds r14,FinalStringArray
 1068 03c0 F090 0000 		lds r15,FinalStringArray+1
 1069 03c4 E80E      		add r14,r24
 1070 03c6 F11C      		adc r15,__zero_reg__
 1071 03c8 E80E      		add r14,r24
 1072 03ca F11C      		adc r15,__zero_reg__
 1073               		.loc 1 542 43 view .LVU300
 1074 03cc F801      		movw r30,r16
 1075 03ce 8081      		ld r24,Z
 1076 03d0 90E0      		ldi r25,0
 1077 03d2 0E94 0000 		call malloc
 1078               	.LVL82:
 1079               		.loc 1 542 34 discriminator 1 view .LVU301
 1080 03d6 F701      		movw r30,r14
 1081 03d8 9183      		std Z+1,r25
 1082 03da 8083      		st Z,r24
 543:../usbn2mc/main/usbnapi.c **** 
 544:../usbn2mc/main/usbnapi.c ****      for(x=0;x<(int)ptr[0];x++)
 1083               		.loc 1 544 6 is_stmt 1 view .LVU302
 1084               	.LVL83:
 1085               		.loc 1 544 6 is_stmt 0 view .LVU303
 1086 03dc D801      		movw r26,r16
 1087               		.loc 1 544 11 view .LVU304
 1088 03de 80E0      		ldi r24,0
 1089 03e0 90E0      		ldi r25,0
 1090               	.LVL84:
 1091               	.L52:
 1092               		.loc 1 544 15 is_stmt 1 discriminator 1 view .LVU305
 1093               		.loc 1 544 16 is_stmt 0 discriminator 1 view .LVU306
 1094 03e2 F801      		movw r30,r16
 1095 03e4 2081      		ld r18,Z
 1096               		.loc 1 544 15 discriminator 1 view .LVU307
 1097 03e6 8217      		cp r24,r18
 1098 03e8 9105      		cpc r25,__zero_reg__
 1099 03ea 04F0      		brlt .L53
 545:../usbn2mc/main/usbnapi.c ****        FinalStringArray[tmp->index][x] = ptr[x];
 546:../usbn2mc/main/usbnapi.c **** 
 547:../usbn2mc/main/usbnapi.c **** 
 548:../usbn2mc/main/usbnapi.c ****   } while(tmp->next != NULL);
 1100               		.loc 1 548 21 is_stmt 1 view .LVU308
 1101               		.loc 1 548 14 is_stmt 0 view .LVU309
 1102 03ec 0B80      		ldd __tmp_reg__,Y+3
 1103 03ee DC81      		ldd r29,Y+4
 1104 03f0 C02D      		mov r28,__tmp_reg__
 1105               	.LVL85:
 1106               		.loc 1 548 21 view .LVU310
 1107 03f2 2097      		sbiw r28,0
 1108 03f4 01F4      		brne .L54
 1109               	/* epilogue start */
 549:../usbn2mc/main/usbnapi.c **** 
 550:../usbn2mc/main/usbnapi.c **** }
 1110               		.loc 1 550 1 view .LVU311
 1111 03f6 DF91      		pop r29
 1112 03f8 CF91      		pop r28
 1113 03fa 1F91      		pop r17
 1114 03fc 0F91      		pop r16
 1115               	.LVL86:
 1116               		.loc 1 550 1 view .LVU312
 1117 03fe FF90      		pop r15
 1118 0400 EF90      		pop r14
 1119 0402 0895      		ret
 1120               	.LVL87:
 1121               	.L53:
 545:../usbn2mc/main/usbnapi.c ****        FinalStringArray[tmp->index][x] = ptr[x];
 1122               		.loc 1 545 8 is_stmt 1 view .LVU313
 545:../usbn2mc/main/usbnapi.c ****        FinalStringArray[tmp->index][x] = ptr[x];
 1123               		.loc 1 545 45 is_stmt 0 view .LVU314
 1124 0404 2D91      		ld r18,X+
 545:../usbn2mc/main/usbnapi.c ****        FinalStringArray[tmp->index][x] = ptr[x];
 1125               		.loc 1 545 28 view .LVU315
 1126 0406 3A81      		ldd r19,Y+2
 545:../usbn2mc/main/usbnapi.c ****        FinalStringArray[tmp->index][x] = ptr[x];
 1127               		.loc 1 545 24 view .LVU316
 1128 0408 E091 0000 		lds r30,FinalStringArray
 1129 040c F091 0000 		lds r31,FinalStringArray+1
 1130 0410 E30F      		add r30,r19
 1131 0412 F11D      		adc r31,__zero_reg__
 1132 0414 E30F      		add r30,r19
 1133 0416 F11D      		adc r31,__zero_reg__
 545:../usbn2mc/main/usbnapi.c ****        FinalStringArray[tmp->index][x] = ptr[x];
 1134               		.loc 1 545 40 view .LVU317
 1135 0418 0190      		ld __tmp_reg__,Z+
 1136 041a F081      		ld r31,Z
 1137 041c E02D      		mov r30,__tmp_reg__
 1138 041e E80F      		add r30,r24
 1139 0420 F91F      		adc r31,r25
 1140 0422 2083      		st Z,r18
 544:../usbn2mc/main/usbnapi.c ****        FinalStringArray[tmp->index][x] = ptr[x];
 1141               		.loc 1 544 29 is_stmt 1 discriminator 3 view .LVU318
 1142 0424 0196      		adiw r24,1
 1143               	.LVL88:
 544:../usbn2mc/main/usbnapi.c ****        FinalStringArray[tmp->index][x] = ptr[x];
 1144               		.loc 1 544 29 is_stmt 0 discriminator 3 view .LVU319
 1145 0426 00C0      		rjmp .L52
 1146               		.cfi_endproc
 1147               	.LFE35:
 1149               	.global	USBNStart
 1151               	USBNStart:
 1152               	.LFB36:
 551:../usbn2mc/main/usbnapi.c **** // ********************************************************************
 552:../usbn2mc/main/usbnapi.c **** // start USB Chip
 553:../usbn2mc/main/usbnapi.c **** // ********************************************************************
 554:../usbn2mc/main/usbnapi.c **** 
 555:../usbn2mc/main/usbnapi.c **** void USBNStart(void)
 556:../usbn2mc/main/usbnapi.c **** {
 1153               		.loc 1 556 1 is_stmt 1 view -0
 1154               		.cfi_startproc
 1155               	/* prologue: function */
 1156               	/* frame size = 0 */
 1157               	/* stack size = 0 */
 1158               	.L__stack_usage = 0
 557:../usbn2mc/main/usbnapi.c ****   _USBNCreateConfDescrField();
 1159               		.loc 1 557 3 view .LVU321
 1160 0428 0E94 0000 		call _USBNCreateConfDescrField
 1161               	.LVL89:
 558:../usbn2mc/main/usbnapi.c ****   _USBNCreateStringField();
 1162               		.loc 1 558 3 view .LVU322
 1163 042c 0E94 0000 		call _USBNCreateStringField
 1164               	.LVL90:
 559:../usbn2mc/main/usbnapi.c **** 
 560:../usbn2mc/main/usbnapi.c ****   _USBNInitEP0();
 1165               		.loc 1 560 3 view .LVU323
 1166 0430 0E94 0000 		call _USBNInitEP0
 1167               	.LVL91:
 561:../usbn2mc/main/usbnapi.c ****                                     // usbn starts here
 562:../usbn2mc/main/usbnapi.c **** 
 563:../usbn2mc/main/usbnapi.c ****   USBNWrite(MCNTRL,SRST);           // clear all registers
 1168               		.loc 1 563 3 view .LVU324
 1169 0434 61E0      		ldi r22,lo8(1)
 1170 0436 80E0      		ldi r24,0
 1171 0438 0E94 0000 		call USBNWrite
 1172               	.LVL92:
 564:../usbn2mc/main/usbnapi.c ****   while(USBNRead(MCNTRL)&SRST);
 1173               		.loc 1 564 3 view .LVU325
 1174               	.L58:
 1175               		.loc 1 564 9 discriminator 1 view .LVU326
 1176 043c 80E0      		ldi r24,0
 1177 043e 0E94 0000 		call USBNRead
 1178               	.LVL93:
 1179 0442 80FD      		sbrc r24,0
 1180 0444 00C0      		rjmp .L58
 565:../usbn2mc/main/usbnapi.c **** 
 566:../usbn2mc/main/usbnapi.c ****   USBNWrite(CCONF, 0x02);           // clock to 16 MHz
 1181               		.loc 1 566 3 view .LVU327
 1182 0446 62E0      		ldi r22,lo8(2)
 1183 0448 81E0      		ldi r24,lo8(1)
 1184 044a 0E94 0000 		call USBNWrite
 1185               	.LVL94:
 567:../usbn2mc/main/usbnapi.c ****   USBNWrite(FAR,AD_EN+0x00);            // set default address
 1186               		.loc 1 567 3 view .LVU328
 1187 044e 60E8      		ldi r22,lo8(-128)
 1188 0450 84E0      		ldi r24,lo8(4)
 1189 0452 0E94 0000 		call USBNWrite
 1190               	.LVL95:
 568:../usbn2mc/main/usbnapi.c ****   USBNWrite(EPC0,DEF);
 1191               		.loc 1 568 3 view .LVU329
 1192 0456 60E4      		ldi r22,lo8(64)
 1193 0458 80E2      		ldi r24,lo8(32)
 1194 045a 0E94 0000 		call USBNWrite
 1195               	.LVL96:
 569:../usbn2mc/main/usbnapi.c ****   USBNWrite(TXC0,FLUSH);            // FLUSHTX0;
 1196               		.loc 1 569 3 view .LVU330
 1197 045e 68E0      		ldi r22,lo8(8)
 1198 0460 83E2      		ldi r24,lo8(35)
 1199 0462 0E94 0000 		call USBNWrite
 1200               	.LVL97:
 570:../usbn2mc/main/usbnapi.c **** 
 571:../usbn2mc/main/usbnapi.c ****   USBNWrite(RXC0,RX_EN+FLUSH);            // enable EP0 receive
 1201               		.loc 1 571 3 view .LVU331
 1202 0466 69E0      		ldi r22,lo8(9)
 1203 0468 87E2      		ldi r24,lo8(39)
 1204 046a 0E94 0000 		call USBNWrite
 1205               	.LVL98:
 572:../usbn2mc/main/usbnapi.c ****   //USBNWrite(RXC1,RX_EN);            // enable EP0 receive
 573:../usbn2mc/main/usbnapi.c ****  
 574:../usbn2mc/main/usbnapi.c ****   USBNWrite(RXMSK, RX_FIFO0+RX_FIFO1+RX_FIFO2+RX_FIFO3);            // data incoming EP0
 1206               		.loc 1 574 3 view .LVU332
 1207 046e 6FE0      		ldi r22,lo8(15)
 1208 0470 8DE0      		ldi r24,lo8(13)
 1209 0472 0E94 0000 		call USBNWrite
 1210               	.LVL99:
 575:../usbn2mc/main/usbnapi.c ****   USBNWrite(TXMSK, TX_FIFO0+TX_FIFO1+TX_FIFO2+TX_FIFO3);            // data incoming EP0
 1211               		.loc 1 575 3 view .LVU333
 1212 0476 6FE0      		ldi r22,lo8(15)
 1213 0478 8BE0      		ldi r24,lo8(11)
 1214 047a 0E94 0000 		call USBNWrite
 1215               	.LVL100:
 576:../usbn2mc/main/usbnapi.c ****  
 577:../usbn2mc/main/usbnapi.c ****   USBNWrite(ALTMSK, ALT_RESET+ALT_SD3+ALT_EOP+ALT_RESUME);
 1216               		.loc 1 577 3 view .LVU334
 1217 047e 68ED      		ldi r22,lo8(-40)
 1218 0480 89E0      		ldi r24,lo8(9)
 1219 0482 0E94 0000 		call USBNWrite
 1220               	.LVL101:
 578:../usbn2mc/main/usbnapi.c ****   USBNWrite(NAKMSK,NAK_OUT0+NAK_OUT1+NAK_IN0+NAK_IN1);
 1221               		.loc 1 578 3 view .LVU335
 1222 0486 63E3      		ldi r22,lo8(51)
 1223 0488 8FE0      		ldi r24,lo8(15)
 1224 048a 0E94 0000 		call USBNWrite
 1225               	.LVL102:
 579:../usbn2mc/main/usbnapi.c ****   //USBNWrite(NAKMSK,NAK_OUT0);
 580:../usbn2mc/main/usbnapi.c **** 
 581:../usbn2mc/main/usbnapi.c ****   USBNWrite(MAMSK, (INTR_E+RX_EV+ALT+TX_EV+NAK) );
 1226               		.loc 1 581 3 view .LVU336
 1227 048e 66ED      		ldi r22,lo8(-42)
 1228 0490 87E0      		ldi r24,lo8(7)
 1229 0492 0E94 0000 		call USBNWrite
 1230               	.LVL103:
 582:../usbn2mc/main/usbnapi.c ****  
 583:../usbn2mc/main/usbnapi.c ****   
 584:../usbn2mc/main/usbnapi.c ****   USBNWrite(NFSR,OPR_ST);
 1231               		.loc 1 584 3 view .LVU337
 1232 0496 62E0      		ldi r22,lo8(2)
 1233 0498 85E0      		ldi r24,lo8(5)
 1234 049a 0E94 0000 		call USBNWrite
 1235               	.LVL104:
 585:../usbn2mc/main/usbnapi.c ****   USBNWrite(MCNTRL, VGE+NAT+INT_L_P);     // VGE, no NAT, interrupt on high
 1236               		.loc 1 585 3 view .LVU338
 1237 049e 6CEC      		ldi r22,lo8(-52)
 1238 04a0 80E0      		ldi r24,0
 1239 04a2 0C94 0000 		jmp USBNWrite
 1240               	.LVL105:
 1241               		.cfi_endproc
 1242               	.LFE36:
 1244               	.global	USBNInterrupt
 1246               	USBNInterrupt:
 1247               	.LFB37:
 586:../usbn2mc/main/usbnapi.c ****  
 587:../usbn2mc/main/usbnapi.c ****   return ;
 588:../usbn2mc/main/usbnapi.c **** }
 589:../usbn2mc/main/usbnapi.c **** 
 590:../usbn2mc/main/usbnapi.c **** 
 591:../usbn2mc/main/usbnapi.c **** // ********************************************************************
 592:../usbn2mc/main/usbnapi.c **** // Interrupt Routine for USBN960x
 593:../usbn2mc/main/usbnapi.c **** // ********************************************************************
 594:../usbn2mc/main/usbnapi.c **** 
 595:../usbn2mc/main/usbnapi.c **** 
 596:../usbn2mc/main/usbnapi.c **** void USBNInterrupt(void)
 597:../usbn2mc/main/usbnapi.c **** {
 1248               		.loc 1 597 1 view -0
 1249               		.cfi_startproc
 1250 04a6 CF93      		push r28
 1251               		.cfi_def_cfa_offset 3
 1252               		.cfi_offset 28, -2
 1253               	/* prologue: function */
 1254               	/* frame size = 0 */
 1255               	/* stack size = 1 */
 1256               	.L__stack_usage = 1
 598:../usbn2mc/main/usbnapi.c ****   unsigned char maev,mask;
 1257               		.loc 1 598 3 view .LVU340
 599:../usbn2mc/main/usbnapi.c ****   //UARTWrite("irq\r\n");
 600:../usbn2mc/main/usbnapi.c ****   
 601:../usbn2mc/main/usbnapi.c ****   maev = USBNRead(MAEV);
 1258               		.loc 1 601 3 view .LVU341
 1259               		.loc 1 601 10 is_stmt 0 view .LVU342
 1260 04a8 86E0      		ldi r24,lo8(6)
 1261 04aa 0E94 0000 		call USBNRead
 1262               	.LVL106:
 1263 04ae C82F      		mov r28,r24
 1264               	.LVL107:
 602:../usbn2mc/main/usbnapi.c ****   //SendHex(maev);
 603:../usbn2mc/main/usbnapi.c **** 
 604:../usbn2mc/main/usbnapi.c ****   if(maev & NAK) _USBNNackEvent(); 
 1265               		.loc 1 604 3 is_stmt 1 view .LVU343
 1266               		.loc 1 604 5 is_stmt 0 view .LVU344
 1267 04b0 84FD      		sbrc r24,4
 1268               		.loc 1 604 18 is_stmt 1 discriminator 1 view .LVU345
 1269 04b2 0E94 0000 		call _USBNNackEvent
 1270               	.LVL108:
 1271               	.L61:
 605:../usbn2mc/main/usbnapi.c ****   if(maev & RX_EV)  _USBNReceiveEvent();
 1272               		.loc 1 605 3 view .LVU346
 1273               		.loc 1 605 5 is_stmt 0 view .LVU347
 1274 04b6 C6FD      		sbrc r28,6
 1275               		.loc 1 605 21 is_stmt 1 discriminator 1 view .LVU348
 1276 04b8 0E94 0000 		call _USBNReceiveEvent
 1277               	.LVL109:
 1278               	.L62:
 606:../usbn2mc/main/usbnapi.c ****   if(maev & TX_EV) _USBNTransmitEvent();
 1279               		.loc 1 606 3 view .LVU349
 1280               		.loc 1 606 5 is_stmt 0 view .LVU350
 1281 04bc C2FD      		sbrc r28,2
 1282               		.loc 1 606 20 is_stmt 1 discriminator 1 view .LVU351
 1283 04be 0E94 0000 		call _USBNTransmitEvent
 1284               	.LVL110:
 1285               	.L63:
 607:../usbn2mc/main/usbnapi.c ****   if(maev & ALT)   _USBNAlternateEvent();
 1286               		.loc 1 607 3 view .LVU352
 1287               		.loc 1 607 5 is_stmt 0 view .LVU353
 1288 04c2 C1FD      		sbrc r28,1
 1289               		.loc 1 607 20 is_stmt 1 discriminator 1 view .LVU354
 1290 04c4 0E94 0000 		call _USBNAlternateEvent
 1291               	.LVL111:
 1292               	.L64:
 608:../usbn2mc/main/usbnapi.c ****   
 609:../usbn2mc/main/usbnapi.c ****   mask = USBNRead(MAMSK);
 1293               		.loc 1 609 3 view .LVU355
 1294               		.loc 1 609 10 is_stmt 0 view .LVU356
 1295 04c8 87E0      		ldi r24,lo8(7)
 1296 04ca 0E94 0000 		call USBNRead
 1297               	.LVL112:
 1298 04ce C82F      		mov r28,r24
 1299               	.LVL113:
 610:../usbn2mc/main/usbnapi.c ****   USBNWrite(MAMSK,0x00);                  // disable irq
 1300               		.loc 1 610 3 is_stmt 1 view .LVU357
 1301 04d0 60E0      		ldi r22,0
 1302 04d2 87E0      		ldi r24,lo8(7)
 1303               	.LVL114:
 1304               		.loc 1 610 3 is_stmt 0 view .LVU358
 1305 04d4 0E94 0000 		call USBNWrite
 1306               	.LVL115:
 611:../usbn2mc/main/usbnapi.c ****   USBNWrite(MAMSK,mask);
 1307               		.loc 1 611 3 is_stmt 1 view .LVU359
 1308 04d8 6C2F      		mov r22,r28
 1309 04da 87E0      		ldi r24,lo8(7)
 1310               	/* epilogue start */
 612:../usbn2mc/main/usbnapi.c **** 
 613:../usbn2mc/main/usbnapi.c **** }
 1311               		.loc 1 613 1 is_stmt 0 view .LVU360
 1312 04dc CF91      		pop r28
 1313               	.LVL116:
 611:../usbn2mc/main/usbnapi.c ****   USBNWrite(MAMSK,mask);
 1314               		.loc 1 611 3 view .LVU361
 1315 04de 0C94 0000 		jmp USBNWrite
 1316               	.LVL117:
 611:../usbn2mc/main/usbnapi.c ****   USBNWrite(MAMSK,mask);
 1317               		.loc 1 611 3 view .LVU362
 1318               		.cfi_endproc
 1319               	.LFE37:
 1321               	.global	USBNAddToStringList
 1323               	USBNAddToStringList:
 1324               	.LVL118:
 1325               	.LFB39:
 614:../usbn2mc/main/usbnapi.c **** 
 615:../usbn2mc/main/usbnapi.c **** 
 616:../usbn2mc/main/usbnapi.c **** // ********************************************************************
 617:../usbn2mc/main/usbnapi.c **** // helper functions 
 618:../usbn2mc/main/usbnapi.c **** // ********************************************************************
 619:../usbn2mc/main/usbnapi.c **** 
 620:../usbn2mc/main/usbnapi.c **** 
 621:../usbn2mc/main/usbnapi.c **** // string descriptor functions 
 622:../usbn2mc/main/usbnapi.c **** int _USBNAddStringDescriptor(char *string)
 623:../usbn2mc/main/usbnapi.c **** {
 624:../usbn2mc/main/usbnapi.c ****   int i;
 625:../usbn2mc/main/usbnapi.c ****   int j=2;
 626:../usbn2mc/main/usbnapi.c ****   int index;
 627:../usbn2mc/main/usbnapi.c ****   
 628:../usbn2mc/main/usbnapi.c ****   
 629:../usbn2mc/main/usbnapi.c ****   char *newstring = (char*)malloc(strlen(string)*2+2);
 630:../usbn2mc/main/usbnapi.c ****   
 631:../usbn2mc/main/usbnapi.c ****   newstring[0]=(strlen(string)*2)+2; // length;
 632:../usbn2mc/main/usbnapi.c ****   newstring[1]=0x03; //Descriptor Type
 633:../usbn2mc/main/usbnapi.c **** 
 634:../usbn2mc/main/usbnapi.c ****   // build string like it is defined in usb spec
 635:../usbn2mc/main/usbnapi.c ****   for(i=0;i<strlen(string);i++)
 636:../usbn2mc/main/usbnapi.c ****   {
 637:../usbn2mc/main/usbnapi.c ****     newstring[j]=string[i];
 638:../usbn2mc/main/usbnapi.c ****     newstring[j+1]=0x00;
 639:../usbn2mc/main/usbnapi.c ****     j = j+2;
 640:../usbn2mc/main/usbnapi.c ****   }
 641:../usbn2mc/main/usbnapi.c **** 
 642:../usbn2mc/main/usbnapi.c ****   index = USBNAddToStringList((void*)newstring);
 643:../usbn2mc/main/usbnapi.c **** 
 644:../usbn2mc/main/usbnapi.c ****   // return index   
 645:../usbn2mc/main/usbnapi.c ****   return index;
 646:../usbn2mc/main/usbnapi.c **** }
 647:../usbn2mc/main/usbnapi.c **** 
 648:../usbn2mc/main/usbnapi.c **** 
 649:../usbn2mc/main/usbnapi.c **** 
 650:../usbn2mc/main/usbnapi.c **** uint8_t USBNAddToStringList( void* data)
 651:../usbn2mc/main/usbnapi.c **** {
 1326               		.loc 1 651 1 is_stmt 1 view -0
 1327               		.cfi_startproc
 1328               		.loc 1 651 1 is_stmt 0 view .LVU364
 1329 04e2 CF92      		push r12
 1330               		.cfi_def_cfa_offset 3
 1331               		.cfi_offset 12, -2
 1332 04e4 DF92      		push r13
 1333               		.cfi_def_cfa_offset 4
 1334               		.cfi_offset 13, -3
 1335 04e6 EF92      		push r14
 1336               		.cfi_def_cfa_offset 5
 1337               		.cfi_offset 14, -4
 1338 04e8 FF92      		push r15
 1339               		.cfi_def_cfa_offset 6
 1340               		.cfi_offset 15, -5
 1341 04ea 0F93      		push r16
 1342               		.cfi_def_cfa_offset 7
 1343               		.cfi_offset 16, -6
 1344 04ec 1F93      		push r17
 1345               		.cfi_def_cfa_offset 8
 1346               		.cfi_offset 17, -7
 1347 04ee CF93      		push r28
 1348               		.cfi_def_cfa_offset 9
 1349               		.cfi_offset 28, -8
 1350 04f0 DF93      		push r29
 1351               		.cfi_def_cfa_offset 10
 1352               		.cfi_offset 29, -9
 1353               	/* prologue: function */
 1354               	/* frame size = 0 */
 1355               	/* stack size = 8 */
 1356               	.L__stack_usage = 8
 1357 04f2 7C01      		movw r14,r24
 652:../usbn2mc/main/usbnapi.c ****   uint8_t index=0;
 1358               		.loc 1 652 3 is_stmt 1 view .LVU365
 1359               	.LVL119:
 653:../usbn2mc/main/usbnapi.c ****   struct string_entry *tmp;
 1360               		.loc 1 653 3 view .LVU366
 654:../usbn2mc/main/usbnapi.c **** 
 655:../usbn2mc/main/usbnapi.c ****   //USBNDebug("add to string list\r\n");
 656:../usbn2mc/main/usbnapi.c ****   if(StringList == NULL)
 1361               		.loc 1 656 3 view .LVU367
 1362               		.loc 1 656 17 is_stmt 0 view .LVU368
 1363 04f4 C090 0000 		lds r12,StringList
 1364 04f8 D090 0000 		lds r13,StringList+1
 657:../usbn2mc/main/usbnapi.c ****   {
 658:../usbn2mc/main/usbnapi.c ****     //USBNDebug("first string elemennt\r\n");
 659:../usbn2mc/main/usbnapi.c ****     StringList = (struct string_entry*)malloc(sizeof(struct string_entry));
 660:../usbn2mc/main/usbnapi.c **** 
 661:../usbn2mc/main/usbnapi.c ****     StringList->data = data;
 662:../usbn2mc/main/usbnapi.c ****     StringList->index = 0;
 663:../usbn2mc/main/usbnapi.c ****     StringList->next = NULL;
 664:../usbn2mc/main/usbnapi.c ****   }
 665:../usbn2mc/main/usbnapi.c ****   else
 666:../usbn2mc/main/usbnapi.c ****   {
 667:../usbn2mc/main/usbnapi.c ****     //USBNDebug("next string element\r\n");
 668:../usbn2mc/main/usbnapi.c ****     
 669:../usbn2mc/main/usbnapi.c ****     index++;
 1365               		.loc 1 669 10 view .LVU369
 1366 04fc 11E0      		ldi r17,lo8(1)
 656:../usbn2mc/main/usbnapi.c ****   {
 1367               		.loc 1 656 5 view .LVU370
 1368 04fe C114      		cp r12,__zero_reg__
 1369 0500 D104      		cpc r13,__zero_reg__
 1370 0502 01F4      		brne .L78
 1371               	.LVL120:
 1372               	.LBB4:
 1373               	.LBI4:
 650:../usbn2mc/main/usbnapi.c **** {
 1374               		.loc 1 650 9 is_stmt 1 view .LVU371
 1375               	.LBB5:
 659:../usbn2mc/main/usbnapi.c **** 
 1376               		.loc 1 659 5 view .LVU372
 659:../usbn2mc/main/usbnapi.c **** 
 1377               		.loc 1 659 40 is_stmt 0 view .LVU373
 1378 0504 85E0      		ldi r24,lo8(5)
 1379 0506 90E0      		ldi r25,0
 1380               	.LVL121:
 659:../usbn2mc/main/usbnapi.c **** 
 1381               		.loc 1 659 40 view .LVU374
 1382 0508 0E94 0000 		call malloc
 1383               	.LVL122:
 659:../usbn2mc/main/usbnapi.c **** 
 1384               		.loc 1 659 16 discriminator 1 view .LVU375
 1385 050c 9093 0000 		sts StringList+1,r25
 1386 0510 8093 0000 		sts StringList,r24
 661:../usbn2mc/main/usbnapi.c ****     StringList->index = 0;
 1387               		.loc 1 661 5 is_stmt 1 view .LVU376
 661:../usbn2mc/main/usbnapi.c ****     StringList->index = 0;
 1388               		.loc 1 661 22 is_stmt 0 view .LVU377
 1389 0514 FC01      		movw r30,r24
 1390 0516 E082      		st Z,r14
 1391 0518 F182      		std Z+1,r15
 662:../usbn2mc/main/usbnapi.c ****     StringList->next = NULL;
 1392               		.loc 1 662 5 is_stmt 1 view .LVU378
 662:../usbn2mc/main/usbnapi.c ****     StringList->next = NULL;
 1393               		.loc 1 662 23 is_stmt 0 view .LVU379
 1394 051a 1282      		std Z+2,__zero_reg__
 663:../usbn2mc/main/usbnapi.c ****   }
 1395               		.loc 1 663 5 is_stmt 1 view .LVU380
 663:../usbn2mc/main/usbnapi.c ****   }
 1396               		.loc 1 663 22 is_stmt 0 view .LVU381
 1397 051c 1482      		std Z+4,__zero_reg__
 1398 051e 1382      		std Z+3,__zero_reg__
 1399               	.LVL123:
 670:../usbn2mc/main/usbnapi.c ****     tmp = StringList;
 671:../usbn2mc/main/usbnapi.c ****     while(tmp->next != NULL)
 672:../usbn2mc/main/usbnapi.c ****     {
 673:../usbn2mc/main/usbnapi.c ****       tmp=tmp->next;
 674:../usbn2mc/main/usbnapi.c ****       index++;
 675:../usbn2mc/main/usbnapi.c ****     } 
 676:../usbn2mc/main/usbnapi.c ****     tmp->next = (struct string_entry*)malloc(sizeof(struct string_entry));
 677:../usbn2mc/main/usbnapi.c ****     tmp=tmp->next;
 678:../usbn2mc/main/usbnapi.c **** 
 679:../usbn2mc/main/usbnapi.c ****     tmp->data = data;
 680:../usbn2mc/main/usbnapi.c ****     tmp->index = index;
 681:../usbn2mc/main/usbnapi.c ****     tmp->next=NULL;
 682:../usbn2mc/main/usbnapi.c ****   }
 683:../usbn2mc/main/usbnapi.c ****   //SendHex(index);    
 684:../usbn2mc/main/usbnapi.c ****   return index;
 1400               		.loc 1 684 3 is_stmt 1 view .LVU382
 663:../usbn2mc/main/usbnapi.c ****   }
 1401               		.loc 1 663 22 is_stmt 0 view .LVU383
 1402 0520 10E0      		ldi r17,0
 1403               	.LVL124:
 1404               	.L77:
 663:../usbn2mc/main/usbnapi.c ****   }
 1405               		.loc 1 663 22 view .LVU384
 1406               	.LBE5:
 1407               	.LBE4:
 685:../usbn2mc/main/usbnapi.c **** }
 1408               		.loc 1 685 1 view .LVU385
 1409 0522 812F      		mov r24,r17
 1410               	/* epilogue start */
 1411 0524 DF91      		pop r29
 1412 0526 CF91      		pop r28
 1413 0528 1F91      		pop r17
 1414 052a 0F91      		pop r16
 1415 052c FF90      		pop r15
 1416 052e EF90      		pop r14
 1417               	.LVL125:
 1418               		.loc 1 685 1 view .LVU386
 1419 0530 DF90      		pop r13
 1420 0532 CF90      		pop r12
 1421 0534 0895      		ret
 1422               	.LVL126:
 1423               	.L80:
 673:../usbn2mc/main/usbnapi.c ****       index++;
 1424               		.loc 1 673 7 is_stmt 1 view .LVU387
 674:../usbn2mc/main/usbnapi.c ****     } 
 1425               		.loc 1 674 7 view .LVU388
 674:../usbn2mc/main/usbnapi.c ****     } 
 1426               		.loc 1 674 12 is_stmt 0 view .LVU389
 1427 0536 1F5F      		subi r17,lo8(-(1))
 1428               	.LVL127:
 673:../usbn2mc/main/usbnapi.c ****       index++;
 1429               		.loc 1 673 10 view .LVU390
 1430 0538 6C01      		movw r12,r24
 1431               	.LVL128:
 1432               	.L78:
 671:../usbn2mc/main/usbnapi.c ****     {
 1433               		.loc 1 671 21 is_stmt 1 view .LVU391
 671:../usbn2mc/main/usbnapi.c ****     {
 1434               		.loc 1 671 14 is_stmt 0 view .LVU392
 1435 053a F601      		movw r30,r12
 1436 053c 8381      		ldd r24,Z+3
 1437 053e 9481      		ldd r25,Z+4
 671:../usbn2mc/main/usbnapi.c ****     {
 1438               		.loc 1 671 21 view .LVU393
 1439 0540 0097      		sbiw r24,0
 1440 0542 01F4      		brne .L80
 676:../usbn2mc/main/usbnapi.c ****     tmp=tmp->next;
 1441               		.loc 1 676 5 is_stmt 1 view .LVU394
 676:../usbn2mc/main/usbnapi.c ****     tmp=tmp->next;
 1442               		.loc 1 676 39 is_stmt 0 view .LVU395
 1443 0544 85E0      		ldi r24,lo8(5)
 1444 0546 90E0      		ldi r25,0
 1445 0548 0E94 0000 		call malloc
 1446               	.LVL129:
 1447 054c EC01      		movw r28,r24
 676:../usbn2mc/main/usbnapi.c ****     tmp=tmp->next;
 1448               		.loc 1 676 15 discriminator 1 view .LVU396
 1449 054e F601      		movw r30,r12
 1450 0550 9483      		std Z+4,r25
 1451 0552 8383      		std Z+3,r24
 677:../usbn2mc/main/usbnapi.c **** 
 1452               		.loc 1 677 5 is_stmt 1 view .LVU397
 1453               	.LVL130:
 679:../usbn2mc/main/usbnapi.c ****     tmp->index = index;
 1454               		.loc 1 679 5 view .LVU398
 679:../usbn2mc/main/usbnapi.c ****     tmp->index = index;
 1455               		.loc 1 679 15 is_stmt 0 view .LVU399
 1456 0554 E882      		st Y,r14
 1457 0556 F982      		std Y+1,r15
 680:../usbn2mc/main/usbnapi.c ****     tmp->next=NULL;
 1458               		.loc 1 680 5 is_stmt 1 view .LVU400
 680:../usbn2mc/main/usbnapi.c ****     tmp->next=NULL;
 1459               		.loc 1 680 16 is_stmt 0 view .LVU401
 1460 0558 1A83      		std Y+2,r17
 681:../usbn2mc/main/usbnapi.c ****   }
 1461               		.loc 1 681 5 is_stmt 1 view .LVU402
 681:../usbn2mc/main/usbnapi.c ****   }
 1462               		.loc 1 681 14 is_stmt 0 view .LVU403
 1463 055a 1C82      		std Y+4,__zero_reg__
 1464 055c 1B82      		std Y+3,__zero_reg__
 684:../usbn2mc/main/usbnapi.c **** }
 1465               		.loc 1 684 3 is_stmt 1 view .LVU404
 684:../usbn2mc/main/usbnapi.c **** }
 1466               		.loc 1 684 10 is_stmt 0 view .LVU405
 1467 055e 00C0      		rjmp .L77
 1468               		.cfi_endproc
 1469               	.LFE39:
 1471               	.global	_USBNAddStringDescriptor
 1473               	_USBNAddStringDescriptor:
 1474               	.LVL131:
 1475               	.LFB38:
 623:../usbn2mc/main/usbnapi.c ****   int i;
 1476               		.loc 1 623 1 is_stmt 1 view -0
 1477               		.cfi_startproc
 623:../usbn2mc/main/usbnapi.c ****   int i;
 1478               		.loc 1 623 1 is_stmt 0 view .LVU407
 1479 0560 0F93      		push r16
 1480               		.cfi_def_cfa_offset 3
 1481               		.cfi_offset 16, -2
 1482 0562 1F93      		push r17
 1483               		.cfi_def_cfa_offset 4
 1484               		.cfi_offset 17, -3
 1485 0564 CF93      		push r28
 1486               		.cfi_def_cfa_offset 5
 1487               		.cfi_offset 28, -4
 1488 0566 DF93      		push r29
 1489               		.cfi_def_cfa_offset 6
 1490               		.cfi_offset 29, -5
 1491               	/* prologue: function */
 1492               	/* frame size = 0 */
 1493               	/* stack size = 4 */
 1494               	.L__stack_usage = 4
 1495 0568 EC01      		movw r28,r24
 624:../usbn2mc/main/usbnapi.c ****   int j=2;
 1496               		.loc 1 624 3 is_stmt 1 view .LVU408
 625:../usbn2mc/main/usbnapi.c ****   int index;
 1497               		.loc 1 625 3 view .LVU409
 1498               	.LVL132:
 626:../usbn2mc/main/usbnapi.c ****   
 1499               		.loc 1 626 3 view .LVU410
 629:../usbn2mc/main/usbnapi.c ****   
 1500               		.loc 1 629 3 view .LVU411
 629:../usbn2mc/main/usbnapi.c ****   
 1501               		.loc 1 629 35 is_stmt 0 view .LVU412
 1502 056a FC01      		movw r30,r24
 1503               		0:
 1504 056c 0190      		ld __tmp_reg__,Z+
 1505 056e 0020      		tst __tmp_reg__
 1506 0570 01F4      		brne 0b
 629:../usbn2mc/main/usbnapi.c ****   
 1507               		.loc 1 629 51 discriminator 1 view .LVU413
 1508 0572 CF01      		movw r24,r30
 1509               	.LVL133:
 629:../usbn2mc/main/usbnapi.c ****   
 1510               		.loc 1 629 51 discriminator 1 view .LVU414
 1511 0574 8C1B      		sub r24,r28
 1512 0576 9D0B      		sbc r25,r29
 629:../usbn2mc/main/usbnapi.c ****   
 1513               		.loc 1 629 28 discriminator 1 view .LVU415
 1514 0578 880F      		lsl r24
 1515 057a 991F      		rol r25
 1516 057c 0E94 0000 		call malloc
 1517               	.LVL134:
 1518 0580 8C01      		movw r16,r24
 1519               	.LVL135:
 631:../usbn2mc/main/usbnapi.c ****   newstring[1]=0x03; //Descriptor Type
 1520               		.loc 1 631 3 is_stmt 1 view .LVU416
 631:../usbn2mc/main/usbnapi.c ****   newstring[1]=0x03; //Descriptor Type
 1521               		.loc 1 631 17 is_stmt 0 view .LVU417
 1522 0582 FE01      		movw r30,r28
 1523               		0:
 1524 0584 0190      		ld __tmp_reg__,Z+
 1525 0586 0020      		tst __tmp_reg__
 1526 0588 01F4      		brne 0b
 631:../usbn2mc/main/usbnapi.c ****   newstring[1]=0x03; //Descriptor Type
 1527               		.loc 1 631 34 discriminator 1 view .LVU418
 1528 058a CF01      		movw r24,r30
 1529 058c 8C1B      		sub r24,r28
 1530 058e 9D0B      		sbc r25,r29
 631:../usbn2mc/main/usbnapi.c ****   newstring[1]=0x03; //Descriptor Type
 1531               		.loc 1 631 15 discriminator 1 view .LVU419
 1532 0590 880F      		lsl r24
 1533 0592 F801      		movw r30,r16
 1534 0594 8083      		st Z,r24
 632:../usbn2mc/main/usbnapi.c **** 
 1535               		.loc 1 632 3 is_stmt 1 view .LVU420
 632:../usbn2mc/main/usbnapi.c **** 
 1536               		.loc 1 632 15 is_stmt 0 view .LVU421
 1537 0596 83E0      		ldi r24,lo8(3)
 1538 0598 8183      		std Z+1,r24
 635:../usbn2mc/main/usbnapi.c ****   {
 1539               		.loc 1 635 3 is_stmt 1 view .LVU422
 1540               	.LVL136:
 635:../usbn2mc/main/usbnapi.c ****   {
 1541               		.loc 1 635 3 is_stmt 0 view .LVU423
 1542 059a 9E01      		movw r18,r28
 1543 059c D801      		movw r26,r16
 635:../usbn2mc/main/usbnapi.c ****   {
 1544               		.loc 1 635 8 view .LVU424
 1545 059e 80E0      		ldi r24,0
 1546 05a0 90E0      		ldi r25,0
 1547               	.LVL137:
 1548               	.L83:
 635:../usbn2mc/main/usbnapi.c ****   {
 1549               		.loc 1 635 12 is_stmt 1 discriminator 1 view .LVU425
 635:../usbn2mc/main/usbnapi.c ****   {
 1550               		.loc 1 635 13 is_stmt 0 discriminator 1 view .LVU426
 1551 05a2 FE01      		movw r30,r28
 1552               		0:
 1553 05a4 0190      		ld __tmp_reg__,Z+
 1554 05a6 0020      		tst __tmp_reg__
 1555 05a8 01F4      		brne 0b
 1556 05aa 3197      		sbiw r30,1
 1557 05ac EC1B      		sub r30,r28
 1558 05ae FD0B      		sbc r31,r29
 635:../usbn2mc/main/usbnapi.c ****   {
 1559               		.loc 1 635 12 discriminator 1 view .LVU427
 1560 05b0 1296      		adiw r26,2
 1561               	.LVL138:
 635:../usbn2mc/main/usbnapi.c ****   {
 1562               		.loc 1 635 12 discriminator 1 view .LVU428
 1563 05b2 8E17      		cp r24,r30
 1564 05b4 9F07      		cpc r25,r31
 1565 05b6 00F0      		brlo .L84
 642:../usbn2mc/main/usbnapi.c **** 
 1566               		.loc 1 642 3 is_stmt 1 view .LVU429
 642:../usbn2mc/main/usbnapi.c **** 
 1567               		.loc 1 642 11 is_stmt 0 view .LVU430
 1568 05b8 C801      		movw r24,r16
 1569               	.LVL139:
 642:../usbn2mc/main/usbnapi.c **** 
 1570               		.loc 1 642 11 view .LVU431
 1571 05ba 0E94 0000 		call USBNAddToStringList
 1572               	.LVL140:
 645:../usbn2mc/main/usbnapi.c **** }
 1573               		.loc 1 645 3 is_stmt 1 view .LVU432
 646:../usbn2mc/main/usbnapi.c **** 
 1574               		.loc 1 646 1 is_stmt 0 view .LVU433
 1575 05be 90E0      		ldi r25,0
 1576               	/* epilogue start */
 1577 05c0 DF91      		pop r29
 1578 05c2 CF91      		pop r28
 1579               	.LVL141:
 646:../usbn2mc/main/usbnapi.c **** 
 1580               		.loc 1 646 1 view .LVU434
 1581 05c4 1F91      		pop r17
 1582 05c6 0F91      		pop r16
 1583               	.LVL142:
 646:../usbn2mc/main/usbnapi.c **** 
 1584               		.loc 1 646 1 view .LVU435
 1585 05c8 0895      		ret
 1586               	.LVL143:
 1587               	.L84:
 637:../usbn2mc/main/usbnapi.c ****     newstring[j+1]=0x00;
 1588               		.loc 1 637 5 is_stmt 1 view .LVU436
 637:../usbn2mc/main/usbnapi.c ****     newstring[j+1]=0x00;
 1589               		.loc 1 637 24 is_stmt 0 view .LVU437
 1590 05ca F901      		movw r30,r18
 1591 05cc 4191      		ld r20,Z+
 1592 05ce 9F01      		movw r18,r30
 637:../usbn2mc/main/usbnapi.c ****     newstring[j+1]=0x00;
 1593               		.loc 1 637 17 view .LVU438
 1594 05d0 4C93      		st X,r20
 638:../usbn2mc/main/usbnapi.c ****     j = j+2;
 1595               		.loc 1 638 5 is_stmt 1 view .LVU439
 638:../usbn2mc/main/usbnapi.c ****     j = j+2;
 1596               		.loc 1 638 19 is_stmt 0 view .LVU440
 1597 05d2 1196      		adiw r26,1
 1598 05d4 1C92      		st X,__zero_reg__
 1599 05d6 1197      		sbiw r26,1
 639:../usbn2mc/main/usbnapi.c ****   }
 1600               		.loc 1 639 5 is_stmt 1 view .LVU441
 1601               	.LVL144:
 635:../usbn2mc/main/usbnapi.c ****   {
 1602               		.loc 1 635 29 discriminator 3 view .LVU442
 1603 05d8 0196      		adiw r24,1
 1604               	.LVL145:
 635:../usbn2mc/main/usbnapi.c ****   {
 1605               		.loc 1 635 29 is_stmt 0 discriminator 3 view .LVU443
 1606 05da 00C0      		rjmp .L83
 1607               		.cfi_endproc
 1608               	.LFE38:
 1610               	.global	USBNDeviceManufacture
 1612               	USBNDeviceManufacture:
 1613               	.LVL146:
 1614               	.LFB17:
  92:../usbn2mc/main/usbnapi.c ****   int index=0;
 1615               		.loc 1 92 1 is_stmt 1 view -0
 1616               		.cfi_startproc
  92:../usbn2mc/main/usbnapi.c ****   int index=0;
 1617               		.loc 1 92 1 is_stmt 0 view .LVU445
 1618 05dc CF93      		push r28
 1619               		.cfi_def_cfa_offset 3
 1620               		.cfi_offset 28, -2
 1621 05de DF93      		push r29
 1622               		.cfi_def_cfa_offset 4
 1623               		.cfi_offset 29, -3
 1624               	/* prologue: function */
 1625               	/* frame size = 0 */
 1626               	/* stack size = 2 */
 1627               	.L__stack_usage = 2
  93:../usbn2mc/main/usbnapi.c ****   // add new string to string list an get actual index
 1628               		.loc 1 93 3 is_stmt 1 view .LVU446
 1629               	.LVL147:
  95:../usbn2mc/main/usbnapi.c **** 
 1630               		.loc 1 95 3 view .LVU447
  95:../usbn2mc/main/usbnapi.c **** 
 1631               		.loc 1 95 11 is_stmt 0 view .LVU448
 1632 05e0 0E94 0000 		call _USBNAddStringDescriptor
 1633               	.LVL148:
  98:../usbn2mc/main/usbnapi.c ****     DeviceDescriptor.iManufacturer = index;
 1634               		.loc 1 98 3 is_stmt 1 view .LVU449
  98:../usbn2mc/main/usbnapi.c ****     DeviceDescriptor.iManufacturer = index;
 1635               		.loc 1 98 5 is_stmt 0 view .LVU450
 1636 05e4 0097      		sbiw r24,0
 1637 05e6 01F0      		breq .L85
  99:../usbn2mc/main/usbnapi.c **** }
 1638               		.loc 1 99 5 is_stmt 1 view .LVU451
  99:../usbn2mc/main/usbnapi.c **** }
 1639               		.loc 1 99 36 is_stmt 0 view .LVU452
 1640 05e8 8093 0000 		sts DeviceDescriptor+14,r24
 1641               	.L85:
 1642               	/* epilogue start */
 100:../usbn2mc/main/usbnapi.c **** 
 1643               		.loc 1 100 1 view .LVU453
 1644 05ec DF91      		pop r29
 1645 05ee CF91      		pop r28
 1646 05f0 0895      		ret
 1647               		.cfi_endproc
 1648               	.LFE17:
 1650               	.global	USBNDeviceProduct
 1652               	USBNDeviceProduct:
 1653               	.LVL149:
 1654               	.LFB18:
 106:../usbn2mc/main/usbnapi.c ****   int index=0;
 1655               		.loc 1 106 1 is_stmt 1 view -0
 1656               		.cfi_startproc
 106:../usbn2mc/main/usbnapi.c ****   int index=0;
 1657               		.loc 1 106 1 is_stmt 0 view .LVU455
 1658 05f2 CF93      		push r28
 1659               		.cfi_def_cfa_offset 3
 1660               		.cfi_offset 28, -2
 1661 05f4 DF93      		push r29
 1662               		.cfi_def_cfa_offset 4
 1663               		.cfi_offset 29, -3
 1664               	/* prologue: function */
 1665               	/* frame size = 0 */
 1666               	/* stack size = 2 */
 1667               	.L__stack_usage = 2
 107:../usbn2mc/main/usbnapi.c ****   // add new item to string list an get actual index
 1668               		.loc 1 107 3 is_stmt 1 view .LVU456
 1669               	.LVL150:
 109:../usbn2mc/main/usbnapi.c **** 
 1670               		.loc 1 109 3 view .LVU457
 109:../usbn2mc/main/usbnapi.c **** 
 1671               		.loc 1 109 11 is_stmt 0 view .LVU458
 1672 05f6 0E94 0000 		call _USBNAddStringDescriptor
 1673               	.LVL151:
 112:../usbn2mc/main/usbnapi.c ****     DeviceDescriptor.iProduct = index;
 1674               		.loc 1 112 3 is_stmt 1 view .LVU459
 112:../usbn2mc/main/usbnapi.c ****     DeviceDescriptor.iProduct = index;
 1675               		.loc 1 112 5 is_stmt 0 view .LVU460
 1676 05fa 0097      		sbiw r24,0
 1677 05fc 01F0      		breq .L90
 113:../usbn2mc/main/usbnapi.c **** }
 1678               		.loc 1 113 5 is_stmt 1 view .LVU461
 113:../usbn2mc/main/usbnapi.c **** }
 1679               		.loc 1 113 31 is_stmt 0 view .LVU462
 1680 05fe 8093 0000 		sts DeviceDescriptor+15,r24
 1681               	.L90:
 1682               	/* epilogue start */
 114:../usbn2mc/main/usbnapi.c **** 
 1683               		.loc 1 114 1 view .LVU463
 1684 0602 DF91      		pop r29
 1685 0604 CF91      		pop r28
 1686 0606 0895      		ret
 1687               		.cfi_endproc
 1688               	.LFE18:
 1690               	.global	USBNDeviceSerialNumber
 1692               	USBNDeviceSerialNumber:
 1693               	.LVL152:
 1694               	.LFB19:
 119:../usbn2mc/main/usbnapi.c ****   int index=0;
 1695               		.loc 1 119 1 is_stmt 1 view -0
 1696               		.cfi_startproc
 119:../usbn2mc/main/usbnapi.c ****   int index=0;
 1697               		.loc 1 119 1 is_stmt 0 view .LVU465
 1698 0608 CF93      		push r28
 1699               		.cfi_def_cfa_offset 3
 1700               		.cfi_offset 28, -2
 1701 060a DF93      		push r29
 1702               		.cfi_def_cfa_offset 4
 1703               		.cfi_offset 29, -3
 1704               	/* prologue: function */
 1705               	/* frame size = 0 */
 1706               	/* stack size = 2 */
 1707               	.L__stack_usage = 2
 120:../usbn2mc/main/usbnapi.c ****   // add new item to string list an get actual index
 1708               		.loc 1 120 3 is_stmt 1 view .LVU466
 1709               	.LVL153:
 122:../usbn2mc/main/usbnapi.c **** 
 1710               		.loc 1 122 3 view .LVU467
 122:../usbn2mc/main/usbnapi.c **** 
 1711               		.loc 1 122 11 is_stmt 0 view .LVU468
 1712 060c 0E94 0000 		call _USBNAddStringDescriptor
 1713               	.LVL154:
 125:../usbn2mc/main/usbnapi.c ****     DeviceDescriptor.iSerialNumber = index;
 1714               		.loc 1 125 3 is_stmt 1 view .LVU469
 125:../usbn2mc/main/usbnapi.c ****     DeviceDescriptor.iSerialNumber = index;
 1715               		.loc 1 125 5 is_stmt 0 view .LVU470
 1716 0610 0097      		sbiw r24,0
 1717 0612 01F0      		breq .L95
 126:../usbn2mc/main/usbnapi.c **** }
 1718               		.loc 1 126 5 is_stmt 1 view .LVU471
 126:../usbn2mc/main/usbnapi.c **** }
 1719               		.loc 1 126 36 is_stmt 0 view .LVU472
 1720 0614 8093 0000 		sts DeviceDescriptor+16,r24
 1721               	.L95:
 1722               	/* epilogue start */
 127:../usbn2mc/main/usbnapi.c **** 
 1723               		.loc 1 127 1 view .LVU473
 1724 0618 DF91      		pop r29
 1725 061a CF91      		pop r28
 1726 061c 0895      		ret
 1727               		.cfi_endproc
 1728               	.LFE19:
 1730               	.global	USBNConfigurationName
 1732               	USBNConfigurationName:
 1733               	.LVL155:
 1734               	.LFB24:
 175:../usbn2mc/main/usbnapi.c ****   int index=0;
 1735               		.loc 1 175 1 is_stmt 1 view -0
 1736               		.cfi_startproc
 175:../usbn2mc/main/usbnapi.c ****   int index=0;
 1737               		.loc 1 175 1 is_stmt 0 view .LVU475
 1738 061e CF93      		push r28
 1739               		.cfi_def_cfa_offset 3
 1740               		.cfi_offset 28, -2
 1741 0620 DF93      		push r29
 1742               		.cfi_def_cfa_offset 4
 1743               		.cfi_offset 29, -3
 1744               	/* prologue: function */
 1745               	/* frame size = 0 */
 1746               	/* stack size = 2 */
 1747               	.L__stack_usage = 2
 1748 0622 EC01      		movw r28,r24
 1749 0624 CB01      		movw r24,r22
 1750               	.LVL156:
 176:../usbn2mc/main/usbnapi.c ****   // add new item to string list an get actual index
 1751               		.loc 1 176 3 is_stmt 1 view .LVU476
 178:../usbn2mc/main/usbnapi.c ****   // find configuration id  
 1752               		.loc 1 178 3 view .LVU477
 178:../usbn2mc/main/usbnapi.c ****   // find configuration id  
 1753               		.loc 1 178 11 is_stmt 0 view .LVU478
 1754 0626 0E94 0000 		call _USBNAddStringDescriptor
 1755               	.LVL157:
 180:../usbn2mc/main/usbnapi.c ****   char *values; 	      
 1756               		.loc 1 180 3 is_stmt 1 view .LVU479
 180:../usbn2mc/main/usbnapi.c ****   char *values; 	      
 1757               		.loc 1 180 22 is_stmt 0 view .LVU480
 1758 062a E091 0000 		lds r30,DescriptorList
 1759 062e F091 0000 		lds r31,DescriptorList+1
 1760               	.LVL158:
 181:../usbn2mc/main/usbnapi.c ****   while(ptr != NULL) {
 1761               		.loc 1 181 3 is_stmt 1 view .LVU481
 182:../usbn2mc/main/usbnapi.c ****     values = (char*)ptr->data;	      
 1762               		.loc 1 182 3 view .LVU482
 1763               	.L101:
 182:../usbn2mc/main/usbnapi.c ****     values = (char*)ptr->data;	      
 1764               		.loc 1 182 13 view .LVU483
 1765 0632 3097      		sbiw r30,0
 1766 0634 01F4      		brne .L103
 1767               	/* epilogue start */
 190:../usbn2mc/main/usbnapi.c **** 
 1768               		.loc 1 190 1 is_stmt 0 view .LVU484
 1769 0636 DF91      		pop r29
 1770 0638 CF91      		pop r28
 1771               	.LVL159:
 190:../usbn2mc/main/usbnapi.c **** 
 1772               		.loc 1 190 1 view .LVU485
 1773 063a 0895      		ret
 1774               	.LVL160:
 1775               	.L103:
 183:../usbn2mc/main/usbnapi.c ****     if(ptr->type==0x02 && values[5]==configuration) // if descr = confi 
 1776               		.loc 1 183 5 is_stmt 1 view .LVU486
 184:../usbn2mc/main/usbnapi.c ****     {
 1777               		.loc 1 184 5 view .LVU487
 184:../usbn2mc/main/usbnapi.c ****     {
 1778               		.loc 1 184 7 is_stmt 0 view .LVU488
 1779 063c 9281      		ldd r25,Z+2
 1780 063e 9230      		cpi r25,lo8(2)
 1781 0640 01F4      		brne .L102
 183:../usbn2mc/main/usbnapi.c ****     if(ptr->type==0x02 && values[5]==configuration) // if descr = confi 
 1782               		.loc 1 183 12 view .LVU489
 1783 0642 A081      		ld r26,Z
 1784 0644 B181      		ldd r27,Z+1
 184:../usbn2mc/main/usbnapi.c ****     {
 1785               		.loc 1 184 33 discriminator 1 view .LVU490
 1786 0646 1596      		adiw r26,5
 1787 0648 9C91      		ld r25,X
 1788 064a 1597      		sbiw r26,5
 184:../usbn2mc/main/usbnapi.c ****     {
 1789               		.loc 1 184 24 discriminator 1 view .LVU491
 1790 064c 9C17      		cp r25,r28
 1791 064e 1D06      		cpc __zero_reg__,r29
 1792 0650 01F4      		brne .L102
 186:../usbn2mc/main/usbnapi.c ****     }
 1793               		.loc 1 186 7 is_stmt 1 view .LVU492
 186:../usbn2mc/main/usbnapi.c ****     }
 1794               		.loc 1 186 16 is_stmt 0 view .LVU493
 1795 0652 1696      		adiw r26,6
 1796 0654 8C93      		st X,r24
 1797               	.LVL161:
 1798               	.L102:
 188:../usbn2mc/main/usbnapi.c ****   }
 1799               		.loc 1 188 5 is_stmt 1 view .LVU494
 188:../usbn2mc/main/usbnapi.c ****   }
 1800               		.loc 1 188 8 is_stmt 0 view .LVU495
 1801 0656 0780      		ldd __tmp_reg__,Z+7
 1802 0658 F085      		ldd r31,Z+8
 1803 065a E02D      		mov r30,__tmp_reg__
 1804               	.LVL162:
 188:../usbn2mc/main/usbnapi.c ****   }
 1805               		.loc 1 188 8 view .LVU496
 1806 065c 00C0      		rjmp .L101
 1807               		.cfi_endproc
 1808               	.LFE24:
 1810               	.global	USBNInterfaceName
 1812               	USBNInterfaceName:
 1813               	.LVL163:
 1814               	.LFB28:
 277:../usbn2mc/main/usbnapi.c ****   int index=0;
 1815               		.loc 1 277 1 is_stmt 1 view -0
 1816               		.cfi_startproc
 277:../usbn2mc/main/usbnapi.c ****   int index=0;
 1817               		.loc 1 277 1 is_stmt 0 view .LVU498
 1818 065e 0F93      		push r16
 1819               		.cfi_def_cfa_offset 3
 1820               		.cfi_offset 16, -2
 1821 0660 1F93      		push r17
 1822               		.cfi_def_cfa_offset 4
 1823               		.cfi_offset 17, -3
 1824 0662 CF93      		push r28
 1825               		.cfi_def_cfa_offset 5
 1826               		.cfi_offset 28, -4
 1827 0664 DF93      		push r29
 1828               		.cfi_def_cfa_offset 6
 1829               		.cfi_offset 29, -5
 1830               	/* prologue: function */
 1831               	/* frame size = 0 */
 1832               	/* stack size = 4 */
 1833               	.L__stack_usage = 4
 1834 0666 EC01      		movw r28,r24
 1835 0668 8B01      		movw r16,r22
 1836 066a CA01      		movw r24,r20
 1837               	.LVL164:
 278:../usbn2mc/main/usbnapi.c ****   // add new item to string list an get actual index
 1838               		.loc 1 278 3 is_stmt 1 view .LVU499
 280:../usbn2mc/main/usbnapi.c ****   // find configuration id  
 1839               		.loc 1 280 3 view .LVU500
 280:../usbn2mc/main/usbnapi.c ****   // find configuration id  
 1840               		.loc 1 280 11 is_stmt 0 view .LVU501
 1841 066c 0E94 0000 		call _USBNAddStringDescriptor
 1842               	.LVL165:
 282:../usbn2mc/main/usbnapi.c ****   char *values; 	      
 1843               		.loc 1 282 3 is_stmt 1 view .LVU502
 282:../usbn2mc/main/usbnapi.c ****   char *values; 	      
 1844               		.loc 1 282 22 is_stmt 0 view .LVU503
 1845 0670 E091 0000 		lds r30,DescriptorList
 1846 0674 F091 0000 		lds r31,DescriptorList+1
 1847               	.LVL166:
 283:../usbn2mc/main/usbnapi.c ****   while(ptr != NULL) {
 1848               		.loc 1 283 3 is_stmt 1 view .LVU504
 284:../usbn2mc/main/usbnapi.c ****     values = (char*)ptr->data;	      
 1849               		.loc 1 284 3 view .LVU505
 1850               	.L105:
 284:../usbn2mc/main/usbnapi.c ****     values = (char*)ptr->data;	      
 1851               		.loc 1 284 13 view .LVU506
 1852 0678 3097      		sbiw r30,0
 1853 067a 01F4      		brne .L107
 1854               	/* epilogue start */
 293:../usbn2mc/main/usbnapi.c **** 
 1855               		.loc 1 293 1 is_stmt 0 view .LVU507
 1856 067c DF91      		pop r29
 1857 067e CF91      		pop r28
 1858               	.LVL167:
 293:../usbn2mc/main/usbnapi.c **** 
 1859               		.loc 1 293 1 view .LVU508
 1860 0680 1F91      		pop r17
 1861 0682 0F91      		pop r16
 1862               	.LVL168:
 293:../usbn2mc/main/usbnapi.c **** 
 1863               		.loc 1 293 1 view .LVU509
 1864 0684 0895      		ret
 1865               	.LVL169:
 1866               	.L107:
 285:../usbn2mc/main/usbnapi.c ****     //if(ptr->type==0x04 && ptr->conf==configuration && values[2]==interface) // if descr = confi 
 1867               		.loc 1 285 5 is_stmt 1 view .LVU510
 287:../usbn2mc/main/usbnapi.c ****     {
 1868               		.loc 1 287 5 view .LVU511
 287:../usbn2mc/main/usbnapi.c ****     {
 1869               		.loc 1 287 7 is_stmt 0 view .LVU512
 1870 0686 9281      		ldd r25,Z+2
 1871 0688 9430      		cpi r25,lo8(4)
 1872 068a 01F4      		brne .L106
 287:../usbn2mc/main/usbnapi.c ****     {
 1873               		.loc 1 287 30 discriminator 1 view .LVU513
 1874 068c 9481      		ldd r25,Z+4
 287:../usbn2mc/main/usbnapi.c ****     {
 1875               		.loc 1 287 24 discriminator 1 view .LVU514
 1876 068e 9C17      		cp r25,r28
 1877 0690 1D06      		cpc __zero_reg__,r29
 1878 0692 01F4      		brne .L106
 287:../usbn2mc/main/usbnapi.c ****     {
 1879               		.loc 1 287 58 discriminator 2 view .LVU515
 1880 0694 9681      		ldd r25,Z+6
 287:../usbn2mc/main/usbnapi.c ****     {
 1881               		.loc 1 287 52 discriminator 2 view .LVU516
 1882 0696 9017      		cp r25,r16
 1883 0698 1106      		cpc __zero_reg__,r17
 1884 069a 01F4      		brne .L106
 285:../usbn2mc/main/usbnapi.c ****     //if(ptr->type==0x04 && ptr->conf==configuration && values[2]==interface) // if descr = confi 
 1885               		.loc 1 285 12 view .LVU517
 1886 069c A081      		ld r26,Z
 1887 069e B181      		ldd r27,Z+1
 289:../usbn2mc/main/usbnapi.c ****     }
 1888               		.loc 1 289 7 is_stmt 1 view .LVU518
 289:../usbn2mc/main/usbnapi.c ****     }
 1889               		.loc 1 289 16 is_stmt 0 view .LVU519
 1890 06a0 1896      		adiw r26,8
 1891 06a2 8C93      		st X,r24
 1892               	.LVL170:
 1893               	.L106:
 291:../usbn2mc/main/usbnapi.c ****   }
 1894               		.loc 1 291 5 is_stmt 1 view .LVU520
 291:../usbn2mc/main/usbnapi.c ****   }
 1895               		.loc 1 291 8 is_stmt 0 view .LVU521
 1896 06a4 0780      		ldd __tmp_reg__,Z+7
 1897 06a6 F085      		ldd r31,Z+8
 1898 06a8 E02D      		mov r30,__tmp_reg__
 1899               	.LVL171:
 291:../usbn2mc/main/usbnapi.c ****   }
 1900               		.loc 1 291 8 view .LVU522
 1901 06aa 00C0      		rjmp .L105
 1902               		.cfi_endproc
 1903               	.LFE28:
 1905               	.global	_USBNAddToList
 1907               	_USBNAddToList:
 1908               	.LVL172:
 1909               	.LFB40:
 686:../usbn2mc/main/usbnapi.c **** 
 687:../usbn2mc/main/usbnapi.c **** 
 688:../usbn2mc/main/usbnapi.c **** 
 689:../usbn2mc/main/usbnapi.c **** 
 690:../usbn2mc/main/usbnapi.c **** void _USBNAddToList( void* data, uint8_t len,uint8_t type,uint8_t conf,uint8_t interf,uint8_t index
 691:../usbn2mc/main/usbnapi.c **** {
 1910               		.loc 1 691 1 is_stmt 1 view -0
 1911               		.cfi_startproc
 1912               		.loc 1 691 1 is_stmt 0 view .LVU524
 1913 06ac 9F92      		push r9
 1914               		.cfi_def_cfa_offset 3
 1915               		.cfi_offset 9, -2
 1916 06ae AF92      		push r10
 1917               		.cfi_def_cfa_offset 4
 1918               		.cfi_offset 10, -3
 1919 06b0 BF92      		push r11
 1920               		.cfi_def_cfa_offset 5
 1921               		.cfi_offset 11, -4
 1922 06b2 CF92      		push r12
 1923               		.cfi_def_cfa_offset 6
 1924               		.cfi_offset 12, -5
 1925 06b4 DF92      		push r13
 1926               		.cfi_def_cfa_offset 7
 1927               		.cfi_offset 13, -6
 1928 06b6 EF92      		push r14
 1929               		.cfi_def_cfa_offset 8
 1930               		.cfi_offset 14, -7
 1931 06b8 FF92      		push r15
 1932               		.cfi_def_cfa_offset 9
 1933               		.cfi_offset 15, -8
 1934 06ba 0F93      		push r16
 1935               		.cfi_def_cfa_offset 10
 1936               		.cfi_offset 16, -9
 1937 06bc 1F93      		push r17
 1938               		.cfi_def_cfa_offset 11
 1939               		.cfi_offset 17, -10
 1940 06be CF93      		push r28
 1941               		.cfi_def_cfa_offset 12
 1942               		.cfi_offset 28, -11
 1943 06c0 DF93      		push r29
 1944               		.cfi_def_cfa_offset 13
 1945               		.cfi_offset 29, -12
 1946               	/* prologue: function */
 1947               	/* frame size = 0 */
 1948               	/* stack size = 11 */
 1949               	.L__stack_usage = 11
 1950 06c2 982E      		mov r9,r24
 1951 06c4 A92E      		mov r10,r25
 1952 06c6 B62E      		mov r11,r22
 1953 06c8 F42E      		mov r15,r20
 1954 06ca 122F      		mov r17,r18
 692:../usbn2mc/main/usbnapi.c ****   struct list_entry *tmp;
 1955               		.loc 1 692 3 is_stmt 1 view .LVU525
 693:../usbn2mc/main/usbnapi.c ****   //USBNDebug("add to list\r\n");
 694:../usbn2mc/main/usbnapi.c ****   if(DescriptorList == NULL)
 1956               		.loc 1 694 3 view .LVU526
 1957               		.loc 1 694 21 is_stmt 0 view .LVU527
 1958 06cc E091 0000 		lds r30,DescriptorList
 1959 06d0 F091 0000 		lds r31,DescriptorList+1
 1960               		.loc 1 694 5 view .LVU528
 1961 06d4 3097      		sbiw r30,0
 1962 06d6 01F4      		brne .L109
 695:../usbn2mc/main/usbnapi.c ****   {
 696:../usbn2mc/main/usbnapi.c ****     //USBNDebug("first elemennt\r\n");
 697:../usbn2mc/main/usbnapi.c ****     DescriptorList = (struct list_entry*)malloc(sizeof(struct list_entry));
 1963               		.loc 1 697 5 is_stmt 1 view .LVU529
 1964               		.loc 1 697 42 is_stmt 0 view .LVU530
 1965 06d8 89E0      		ldi r24,lo8(9)
 1966 06da 90E0      		ldi r25,0
 1967               	.LVL173:
 1968               		.loc 1 697 42 view .LVU531
 1969 06dc 0E94 0000 		call malloc
 1970               	.LVL174:
 1971               		.loc 1 697 20 discriminator 1 view .LVU532
 1972 06e0 9093 0000 		sts DescriptorList+1,r25
 1973 06e4 8093 0000 		sts DescriptorList,r24
 698:../usbn2mc/main/usbnapi.c **** 
 699:../usbn2mc/main/usbnapi.c ****     DescriptorList->data = data;
 1974               		.loc 1 699 5 is_stmt 1 view .LVU533
 1975               		.loc 1 699 26 is_stmt 0 view .LVU534
 1976 06e8 FC01      		movw r30,r24
 1977 06ea 9082      		st Z,r9
 1978 06ec A182      		std Z+1,r10
 700:../usbn2mc/main/usbnapi.c ****     DescriptorList->len = len;
 1979               		.loc 1 700 5 is_stmt 1 view .LVU535
 1980               		.loc 1 700 25 is_stmt 0 view .LVU536
 1981 06ee B382      		std Z+3,r11
 701:../usbn2mc/main/usbnapi.c ****     DescriptorList->next = NULL;
 1982               		.loc 1 701 5 is_stmt 1 view .LVU537
 1983               		.loc 1 701 26 is_stmt 0 view .LVU538
 1984 06f0 1086      		std Z+8,__zero_reg__
 1985 06f2 1782      		std Z+7,__zero_reg__
 702:../usbn2mc/main/usbnapi.c ****     DescriptorList->type = type;
 1986               		.loc 1 702 5 is_stmt 1 view .LVU539
 1987               		.loc 1 702 26 is_stmt 0 view .LVU540
 1988 06f4 F282      		std Z+2,r15
 703:../usbn2mc/main/usbnapi.c ****     DescriptorList->conf = conf;
 1989               		.loc 1 703 5 is_stmt 1 view .LVU541
 1990               		.loc 1 703 26 is_stmt 0 view .LVU542
 1991 06f6 1483      		std Z+4,r17
 704:../usbn2mc/main/usbnapi.c ****     DescriptorList->interf = interf;
 1992               		.loc 1 704 5 is_stmt 1 view .LVU543
 1993               		.loc 1 704 28 is_stmt 0 view .LVU544
 1994 06f8 0583      		std Z+5,r16
 705:../usbn2mc/main/usbnapi.c ****     DescriptorList->index = index;
 1995               		.loc 1 705 5 is_stmt 1 view .LVU545
 1996               		.loc 1 705 27 is_stmt 0 view .LVU546
 1997 06fa E682      		std Z+6,r14
 1998               	.L108:
 1999               	/* epilogue start */
 706:../usbn2mc/main/usbnapi.c ****   }
 707:../usbn2mc/main/usbnapi.c ****   else
 708:../usbn2mc/main/usbnapi.c ****   {
 709:../usbn2mc/main/usbnapi.c ****     //USBNDebug("next elemennt\r\n");
 710:../usbn2mc/main/usbnapi.c ****     tmp = DescriptorList;
 711:../usbn2mc/main/usbnapi.c **** 
 712:../usbn2mc/main/usbnapi.c ****     while(tmp->next != NULL)
 713:../usbn2mc/main/usbnapi.c ****       tmp=tmp->next;
 714:../usbn2mc/main/usbnapi.c **** 
 715:../usbn2mc/main/usbnapi.c ****     tmp->next = (struct list_entry*)malloc(sizeof(struct list_entry));
 716:../usbn2mc/main/usbnapi.c ****   
 717:../usbn2mc/main/usbnapi.c ****     tmp=tmp->next;
 718:../usbn2mc/main/usbnapi.c ****     tmp->data = data;
 719:../usbn2mc/main/usbnapi.c ****     tmp->len = len;
 720:../usbn2mc/main/usbnapi.c ****     tmp->type = type;
 721:../usbn2mc/main/usbnapi.c ****     tmp->conf = conf;
 722:../usbn2mc/main/usbnapi.c ****     tmp->interf = interf;
 723:../usbn2mc/main/usbnapi.c ****     tmp->index = index;
 724:../usbn2mc/main/usbnapi.c ****     tmp->next=NULL;
 725:../usbn2mc/main/usbnapi.c ****   }
 726:../usbn2mc/main/usbnapi.c **** }
 2000               		.loc 1 726 1 view .LVU547
 2001 06fc DF91      		pop r29
 2002 06fe CF91      		pop r28
 2003 0700 1F91      		pop r17
 2004               	.LVL175:
 2005               		.loc 1 726 1 view .LVU548
 2006 0702 0F91      		pop r16
 2007               	.LVL176:
 2008               		.loc 1 726 1 view .LVU549
 2009 0704 FF90      		pop r15
 2010               	.LVL177:
 2011               		.loc 1 726 1 view .LVU550
 2012 0706 EF90      		pop r14
 2013               	.LVL178:
 2014               		.loc 1 726 1 view .LVU551
 2015 0708 DF90      		pop r13
 2016 070a CF90      		pop r12
 2017 070c BF90      		pop r11
 2018               	.LVL179:
 2019               		.loc 1 726 1 view .LVU552
 2020 070e AF90      		pop r10
 2021 0710 9F90      		pop r9
 2022 0712 0895      		ret
 2023               	.LVL180:
 2024               	.L109:
 712:../usbn2mc/main/usbnapi.c ****       tmp=tmp->next;
 2025               		.loc 1 712 21 is_stmt 1 view .LVU553
 2026 0714 6F01      		movw r12,r30
 712:../usbn2mc/main/usbnapi.c ****       tmp=tmp->next;
 2027               		.loc 1 712 14 is_stmt 0 view .LVU554
 2028 0716 0780      		ldd __tmp_reg__,Z+7
 2029 0718 F085      		ldd r31,Z+8
 2030 071a E02D      		mov r30,__tmp_reg__
 2031               	.LVL181:
 712:../usbn2mc/main/usbnapi.c ****       tmp=tmp->next;
 2032               		.loc 1 712 21 view .LVU555
 2033 071c 3097      		sbiw r30,0
 2034 071e 01F4      		brne .L109
 715:../usbn2mc/main/usbnapi.c ****   
 2035               		.loc 1 715 5 is_stmt 1 view .LVU556
 715:../usbn2mc/main/usbnapi.c ****   
 2036               		.loc 1 715 37 is_stmt 0 view .LVU557
 2037 0720 89E0      		ldi r24,lo8(9)
 2038 0722 90E0      		ldi r25,0
 2039               	.LVL182:
 715:../usbn2mc/main/usbnapi.c ****   
 2040               		.loc 1 715 37 view .LVU558
 2041 0724 0E94 0000 		call malloc
 2042               	.LVL183:
 2043 0728 EC01      		movw r28,r24
 715:../usbn2mc/main/usbnapi.c ****   
 2044               		.loc 1 715 15 discriminator 1 view .LVU559
 2045 072a F601      		movw r30,r12
 2046 072c 9087      		std Z+8,r25
 2047 072e 8783      		std Z+7,r24
 717:../usbn2mc/main/usbnapi.c ****     tmp->data = data;
 2048               		.loc 1 717 5 is_stmt 1 view .LVU560
 2049               	.LVL184:
 718:../usbn2mc/main/usbnapi.c ****     tmp->len = len;
 2050               		.loc 1 718 5 view .LVU561
 718:../usbn2mc/main/usbnapi.c ****     tmp->len = len;
 2051               		.loc 1 718 15 is_stmt 0 view .LVU562
 2052 0730 9882      		st Y,r9
 2053 0732 A982      		std Y+1,r10
 719:../usbn2mc/main/usbnapi.c ****     tmp->type = type;
 2054               		.loc 1 719 5 is_stmt 1 view .LVU563
 719:../usbn2mc/main/usbnapi.c ****     tmp->type = type;
 2055               		.loc 1 719 14 is_stmt 0 view .LVU564
 2056 0734 BB82      		std Y+3,r11
 720:../usbn2mc/main/usbnapi.c ****     tmp->conf = conf;
 2057               		.loc 1 720 5 is_stmt 1 view .LVU565
 720:../usbn2mc/main/usbnapi.c ****     tmp->conf = conf;
 2058               		.loc 1 720 15 is_stmt 0 view .LVU566
 2059 0736 FA82      		std Y+2,r15
 721:../usbn2mc/main/usbnapi.c ****     tmp->interf = interf;
 2060               		.loc 1 721 5 is_stmt 1 view .LVU567
 721:../usbn2mc/main/usbnapi.c ****     tmp->interf = interf;
 2061               		.loc 1 721 15 is_stmt 0 view .LVU568
 2062 0738 1C83      		std Y+4,r17
 722:../usbn2mc/main/usbnapi.c ****     tmp->index = index;
 2063               		.loc 1 722 5 is_stmt 1 view .LVU569
 722:../usbn2mc/main/usbnapi.c ****     tmp->index = index;
 2064               		.loc 1 722 17 is_stmt 0 view .LVU570
 2065 073a 0D83      		std Y+5,r16
 723:../usbn2mc/main/usbnapi.c ****     tmp->next=NULL;
 2066               		.loc 1 723 5 is_stmt 1 view .LVU571
 723:../usbn2mc/main/usbnapi.c ****     tmp->next=NULL;
 2067               		.loc 1 723 16 is_stmt 0 view .LVU572
 2068 073c EE82      		std Y+6,r14
 724:../usbn2mc/main/usbnapi.c ****   }
 2069               		.loc 1 724 5 is_stmt 1 view .LVU573
 724:../usbn2mc/main/usbnapi.c ****   }
 2070               		.loc 1 724 14 is_stmt 0 view .LVU574
 2071 073e 1886      		std Y+8,__zero_reg__
 2072 0740 1F82      		std Y+7,__zero_reg__
 2073               		.loc 1 726 1 view .LVU575
 2074 0742 00C0      		rjmp .L108
 2075               		.cfi_endproc
 2076               	.LFE40:
 2078               	.global	USBNAddConfiguration
 2080               	USBNAddConfiguration:
 2081               	.LFB23:
 149:../usbn2mc/main/usbnapi.c ****   int index;
 2082               		.loc 1 149 1 is_stmt 1 view -0
 2083               		.cfi_startproc
 2084 0744 EF92      		push r14
 2085               		.cfi_def_cfa_offset 3
 2086               		.cfi_offset 14, -2
 2087 0746 0F93      		push r16
 2088               		.cfi_def_cfa_offset 4
 2089               		.cfi_offset 16, -3
 2090 0748 1F93      		push r17
 2091               		.cfi_def_cfa_offset 5
 2092               		.cfi_offset 17, -4
 2093 074a CF93      		push r28
 2094               		.cfi_def_cfa_offset 6
 2095               		.cfi_offset 28, -5
 2096 074c DF93      		push r29
 2097               		.cfi_def_cfa_offset 7
 2098               		.cfi_offset 29, -6
 2099               	/* prologue: function */
 2100               	/* frame size = 0 */
 2101               	/* stack size = 5 */
 2102               	.L__stack_usage = 5
 150:../usbn2mc/main/usbnapi.c ****   
 2103               		.loc 1 150 3 view .LVU577
 152:../usbn2mc/main/usbnapi.c **** 
 2104               		.loc 1 152 3 view .LVU578
 152:../usbn2mc/main/usbnapi.c **** 
 2105               		.loc 1 152 29 is_stmt 0 view .LVU579
 2106 074e E0E0      		ldi r30,lo8(DeviceDescriptor)
 2107 0750 F0E0      		ldi r31,hi8(DeviceDescriptor)
 152:../usbn2mc/main/usbnapi.c **** 
 2108               		.loc 1 152 11 view .LVU580
 2109 0752 1189      		ldd r17,Z+17
 2110 0754 1F5F      		subi r17,lo8(-(1))
 152:../usbn2mc/main/usbnapi.c **** 
 2111               		.loc 1 152 9 view .LVU581
 2112 0756 118B      		std Z+17,r17
 2113               	.LVL185:
 154:../usbn2mc/main/usbnapi.c ****       (struct usb_configuration_descriptor*)malloc(sizeof(struct usb_configuration_descriptor));
 2114               		.loc 1 154 3 is_stmt 1 view .LVU582
 155:../usbn2mc/main/usbnapi.c **** 
 2115               		.loc 1 155 45 is_stmt 0 view .LVU583
 2116 0758 89E0      		ldi r24,lo8(9)
 2117 075a 90E0      		ldi r25,0
 2118 075c 0E94 0000 		call malloc
 2119               	.LVL186:
 2120 0760 EC01      		movw r28,r24
 2121               	.LVL187:
 157:../usbn2mc/main/usbnapi.c ****   //conf->wTotalLength=sizeof(struct usb_configuration_descriptor);
 2122               		.loc 1 157 3 is_stmt 1 view .LVU584
 157:../usbn2mc/main/usbnapi.c ****   //conf->wTotalLength=sizeof(struct usb_configuration_descriptor);
 2123               		.loc 1 157 16 is_stmt 0 view .LVU585
 2124 0762 89E0      		ldi r24,lo8(9)
 2125               	.LVL188:
 157:../usbn2mc/main/usbnapi.c ****   //conf->wTotalLength=sizeof(struct usb_configuration_descriptor);
 2126               		.loc 1 157 16 view .LVU586
 2127 0764 8883      		st Y,r24
 159:../usbn2mc/main/usbnapi.c ****   conf->bDescriptorType=0x02;
 2128               		.loc 1 159 3 is_stmt 1 view .LVU587
 159:../usbn2mc/main/usbnapi.c ****   conf->bDescriptorType=0x02;
 2129               		.loc 1 159 21 is_stmt 0 view .LVU588
 2130 0766 89E0      		ldi r24,lo8(9)
 2131 0768 90E0      		ldi r25,0
 2132 076a 9B83      		std Y+3,r25
 2133 076c 8A83      		std Y+2,r24
 160:../usbn2mc/main/usbnapi.c ****   conf->bNumInterfaces=0x00;
 2134               		.loc 1 160 3 is_stmt 1 view .LVU589
 160:../usbn2mc/main/usbnapi.c ****   conf->bNumInterfaces=0x00;
 2135               		.loc 1 160 24 is_stmt 0 view .LVU590
 2136 076e 82E0      		ldi r24,lo8(2)
 2137 0770 8983      		std Y+1,r24
 161:../usbn2mc/main/usbnapi.c ****   conf->bConfigurationValue=index; // number of configuration
 2138               		.loc 1 161 3 is_stmt 1 view .LVU591
 161:../usbn2mc/main/usbnapi.c ****   conf->bConfigurationValue=index; // number of configuration
 2139               		.loc 1 161 23 is_stmt 0 view .LVU592
 2140 0772 1C82      		std Y+4,__zero_reg__
 162:../usbn2mc/main/usbnapi.c ****   conf->iConfiguration=0x00; // string index for configuration 
 2141               		.loc 1 162 3 is_stmt 1 view .LVU593
 162:../usbn2mc/main/usbnapi.c ****   conf->iConfiguration=0x00; // string index for configuration 
 2142               		.loc 1 162 28 is_stmt 0 view .LVU594
 2143 0774 1D83      		std Y+5,r17
 163:../usbn2mc/main/usbnapi.c ****   conf->bmAttributes=0x80;  // bus powered
 2144               		.loc 1 163 3 is_stmt 1 view .LVU595
 163:../usbn2mc/main/usbnapi.c ****   conf->bmAttributes=0x80;  // bus powered
 2145               		.loc 1 163 23 is_stmt 0 view .LVU596
 2146 0776 1E82      		std Y+6,__zero_reg__
 164:../usbn2mc/main/usbnapi.c ****   //conf->bmAttributes=0xA0;  // bus powered
 2147               		.loc 1 164 3 is_stmt 1 view .LVU597
 164:../usbn2mc/main/usbnapi.c ****   //conf->bmAttributes=0xA0;  // bus powered
 2148               		.loc 1 164 21 is_stmt 0 view .LVU598
 2149 0778 80E8      		ldi r24,lo8(-128)
 2150 077a 8F83      		std Y+7,r24
 166:../usbn2mc/main/usbnapi.c **** 
 2151               		.loc 1 166 3 is_stmt 1 view .LVU599
 166:../usbn2mc/main/usbnapi.c **** 
 2152               		.loc 1 166 17 is_stmt 0 view .LVU600
 2153 077c 8AE1      		ldi r24,lo8(26)
 2154 077e 8887      		std Y+8,r24
 168:../usbn2mc/main/usbnapi.c **** 
 2155               		.loc 1 168 3 is_stmt 1 view .LVU601
 2156 0780 E12C      		mov r14,__zero_reg__
 2157 0782 00E0      		ldi r16,0
 2158 0784 20E0      		ldi r18,0
 2159 0786 42E0      		ldi r20,lo8(2)
 2160 0788 69E0      		ldi r22,lo8(9)
 2161 078a CE01      		movw r24,r28
 2162 078c 0E94 0000 		call _USBNAddToList
 2163               	.LVL189:
 170:../usbn2mc/main/usbnapi.c **** }
 2164               		.loc 1 170 3 view .LVU602
 171:../usbn2mc/main/usbnapi.c **** 
 2165               		.loc 1 171 1 is_stmt 0 view .LVU603
 2166 0790 812F      		mov r24,r17
 2167 0792 90E0      		ldi r25,0
 2168               	/* epilogue start */
 2169 0794 DF91      		pop r29
 2170 0796 CF91      		pop r28
 2171               	.LVL190:
 171:../usbn2mc/main/usbnapi.c **** 
 2172               		.loc 1 171 1 view .LVU604
 2173 0798 1F91      		pop r17
 2174               	.LVL191:
 171:../usbn2mc/main/usbnapi.c **** 
 2175               		.loc 1 171 1 view .LVU605
 2176 079a 0F91      		pop r16
 2177 079c EF90      		pop r14
 2178 079e 0895      		ret
 2179               		.cfi_endproc
 2180               	.LFE23:
 2182               	.global	USBNAddInterfaceClass
 2184               	USBNAddInterfaceClass:
 2185               	.LVL192:
 2186               	.LFB26:
 209:../usbn2mc/main/usbnapi.c ****   int index=0;
 2187               		.loc 1 209 1 is_stmt 1 view -0
 2188               		.cfi_startproc
 209:../usbn2mc/main/usbnapi.c ****   int index=0;
 2189               		.loc 1 209 1 is_stmt 0 view .LVU607
 2190 07a0 BF92      		push r11
 2191               		.cfi_def_cfa_offset 3
 2192               		.cfi_offset 11, -2
 2193 07a2 CF92      		push r12
 2194               		.cfi_def_cfa_offset 4
 2195               		.cfi_offset 12, -3
 2196 07a4 DF92      		push r13
 2197               		.cfi_def_cfa_offset 5
 2198               		.cfi_offset 13, -4
 2199 07a6 EF92      		push r14
 2200               		.cfi_def_cfa_offset 6
 2201               		.cfi_offset 14, -5
 2202 07a8 FF92      		push r15
 2203               		.cfi_def_cfa_offset 7
 2204               		.cfi_offset 15, -6
 2205 07aa 0F93      		push r16
 2206               		.cfi_def_cfa_offset 8
 2207               		.cfi_offset 16, -7
 2208 07ac 1F93      		push r17
 2209               		.cfi_def_cfa_offset 9
 2210               		.cfi_offset 17, -8
 2211 07ae CF93      		push r28
 2212               		.cfi_def_cfa_offset 10
 2213               		.cfi_offset 28, -9
 2214 07b0 DF93      		push r29
 2215               		.cfi_def_cfa_offset 11
 2216               		.cfi_offset 29, -10
 2217               	/* prologue: function */
 2218               	/* frame size = 0 */
 2219               	/* stack size = 9 */
 2220               	.L__stack_usage = 9
 2221 07b2 182F      		mov r17,r24
 2222 07b4 B62E      		mov r11,r22
 2223 07b6 E42E      		mov r14,r20
 2224 07b8 F22E      		mov r15,r18
 210:../usbn2mc/main/usbnapi.c ****   // get new interface number
 2225               		.loc 1 210 3 is_stmt 1 view .LVU608
 2226               	.LVL193:
 212:../usbn2mc/main/usbnapi.c ****   char *values; 	      
 2227               		.loc 1 212 3 view .LVU609
 212:../usbn2mc/main/usbnapi.c ****   char *values; 	      
 2228               		.loc 1 212 22 is_stmt 0 view .LVU610
 2229 07ba E091 0000 		lds r30,DescriptorList
 2230 07be F091 0000 		lds r31,DescriptorList+1
 2231               	.LVL194:
 213:../usbn2mc/main/usbnapi.c ****   while(ptr != NULL) {
 2232               		.loc 1 213 3 is_stmt 1 view .LVU611
 214:../usbn2mc/main/usbnapi.c ****     values = (char*)ptr->data;	      
 2233               		.loc 1 214 3 view .LVU612
 210:../usbn2mc/main/usbnapi.c ****   // get new interface number
 2234               		.loc 1 210 7 is_stmt 0 view .LVU613
 2235 07c2 C12C      		mov r12,__zero_reg__
 2236 07c4 D12C      		mov r13,__zero_reg__
 2237               	.LVL195:
 2238               	.L115:
 214:../usbn2mc/main/usbnapi.c ****     values = (char*)ptr->data;	      
 2239               		.loc 1 214 13 is_stmt 1 view .LVU614
 2240 07c6 3097      		sbiw r30,0
 2241 07c8 01F4      		brne .L117
 224:../usbn2mc/main/usbnapi.c ****   interf = (struct usb_interface_descriptor*)malloc(sizeof(struct usb_interface_descriptor));
 2242               		.loc 1 224 3 view .LVU615
 225:../usbn2mc/main/usbnapi.c ****   interf->bLength = 0x09;  
 2243               		.loc 1 225 3 view .LVU616
 225:../usbn2mc/main/usbnapi.c ****   interf->bLength = 0x09;  
 2244               		.loc 1 225 46 is_stmt 0 view .LVU617
 2245 07ca 89E0      		ldi r24,lo8(9)
 2246 07cc 90E0      		ldi r25,0
 2247 07ce 0E94 0000 		call malloc
 2248               	.LVL196:
 225:../usbn2mc/main/usbnapi.c ****   interf->bLength = 0x09;  
 2249               		.loc 1 225 46 view .LVU618
 2250 07d2 EC01      		movw r28,r24
 2251               	.LVL197:
 226:../usbn2mc/main/usbnapi.c ****   interf->bDescriptorType     = INTERFACE;
 2252               		.loc 1 226 3 is_stmt 1 view .LVU619
 226:../usbn2mc/main/usbnapi.c ****   interf->bDescriptorType     = INTERFACE;
 2253               		.loc 1 226 19 is_stmt 0 view .LVU620
 2254 07d4 89E0      		ldi r24,lo8(9)
 2255               	.LVL198:
 226:../usbn2mc/main/usbnapi.c ****   interf->bDescriptorType     = INTERFACE;
 2256               		.loc 1 226 19 view .LVU621
 2257 07d6 8883      		st Y,r24
 227:../usbn2mc/main/usbnapi.c ****   interf->bInterfaceNumber     = number; // FIXME
 2258               		.loc 1 227 3 is_stmt 1 view .LVU622
 227:../usbn2mc/main/usbnapi.c ****   interf->bInterfaceNumber     = number; // FIXME
 2259               		.loc 1 227 31 is_stmt 0 view .LVU623
 2260 07d8 84E0      		ldi r24,lo8(4)
 2261 07da 8983      		std Y+1,r24
 228:../usbn2mc/main/usbnapi.c ****   interf->bAlternateSetting   = 0x00;
 2262               		.loc 1 228 3 is_stmt 1 view .LVU624
 228:../usbn2mc/main/usbnapi.c ****   interf->bAlternateSetting   = 0x00;
 2263               		.loc 1 228 32 is_stmt 0 view .LVU625
 2264 07dc BA82      		std Y+2,r11
 229:../usbn2mc/main/usbnapi.c ****   interf->bNumEndpoints       = 0x00;
 2265               		.loc 1 229 3 is_stmt 1 view .LVU626
 229:../usbn2mc/main/usbnapi.c ****   interf->bNumEndpoints       = 0x00;
 2266               		.loc 1 229 31 is_stmt 0 view .LVU627
 2267 07de 1B82      		std Y+3,__zero_reg__
 230:../usbn2mc/main/usbnapi.c ****   interf->bInterfaceClass     = class;
 2268               		.loc 1 230 3 is_stmt 1 view .LVU628
 230:../usbn2mc/main/usbnapi.c ****   interf->bInterfaceClass     = class;
 2269               		.loc 1 230 31 is_stmt 0 view .LVU629
 2270 07e0 1C82      		std Y+4,__zero_reg__
 231:../usbn2mc/main/usbnapi.c ****   interf->bInterfaceSubClass   = subclass;
 2271               		.loc 1 231 3 is_stmt 1 view .LVU630
 231:../usbn2mc/main/usbnapi.c ****   interf->bInterfaceSubClass   = subclass;
 2272               		.loc 1 231 31 is_stmt 0 view .LVU631
 2273 07e2 ED82      		std Y+5,r14
 232:../usbn2mc/main/usbnapi.c ****   interf->bInterfaceProtocol   = protocol;
 2274               		.loc 1 232 3 is_stmt 1 view .LVU632
 232:../usbn2mc/main/usbnapi.c ****   interf->bInterfaceProtocol   = protocol;
 2275               		.loc 1 232 32 is_stmt 0 view .LVU633
 2276 07e4 FE82      		std Y+6,r15
 233:../usbn2mc/main/usbnapi.c ****   interf->iInterface           = 0x00;
 2277               		.loc 1 233 3 is_stmt 1 view .LVU634
 233:../usbn2mc/main/usbnapi.c ****   interf->iInterface           = 0x00;
 2278               		.loc 1 233 32 is_stmt 0 view .LVU635
 2279 07e6 0F83      		std Y+7,r16
 234:../usbn2mc/main/usbnapi.c ****   
 2280               		.loc 1 234 3 is_stmt 1 view .LVU636
 234:../usbn2mc/main/usbnapi.c ****   
 2281               		.loc 1 234 32 is_stmt 0 view .LVU637
 2282 07e8 1886      		std Y+8,__zero_reg__
 236:../usbn2mc/main/usbnapi.c ****   return index;
 2283               		.loc 1 236 3 is_stmt 1 view .LVU638
 2284 07ea EC2C      		mov r14,r12
 2285               	.LVL199:
 236:../usbn2mc/main/usbnapi.c ****   return index;
 2286               		.loc 1 236 3 is_stmt 0 view .LVU639
 2287 07ec 00E0      		ldi r16,0
 2288               	.LVL200:
 236:../usbn2mc/main/usbnapi.c ****   return index;
 2289               		.loc 1 236 3 view .LVU640
 2290 07ee 212F      		mov r18,r17
 2291 07f0 44E0      		ldi r20,lo8(4)
 2292 07f2 69E0      		ldi r22,lo8(9)
 2293 07f4 CE01      		movw r24,r28
 2294 07f6 0E94 0000 		call _USBNAddToList
 2295               	.LVL201:
 237:../usbn2mc/main/usbnapi.c **** }
 2296               		.loc 1 237 3 is_stmt 1 view .LVU641
 238:../usbn2mc/main/usbnapi.c **** 
 2297               		.loc 1 238 1 is_stmt 0 view .LVU642
 2298 07fa C601      		movw r24,r12
 2299               	/* epilogue start */
 2300 07fc DF91      		pop r29
 2301 07fe CF91      		pop r28
 2302               	.LVL202:
 238:../usbn2mc/main/usbnapi.c **** 
 2303               		.loc 1 238 1 view .LVU643
 2304 0800 1F91      		pop r17
 2305 0802 0F91      		pop r16
 2306 0804 FF90      		pop r15
 2307               	.LVL203:
 238:../usbn2mc/main/usbnapi.c **** 
 2308               		.loc 1 238 1 view .LVU644
 2309 0806 EF90      		pop r14
 2310 0808 DF90      		pop r13
 2311 080a CF90      		pop r12
 2312               	.LVL204:
 238:../usbn2mc/main/usbnapi.c **** 
 2313               		.loc 1 238 1 view .LVU645
 2314 080c BF90      		pop r11
 2315 080e 0895      		ret
 2316               	.LVL205:
 2317               	.L117:
 215:../usbn2mc/main/usbnapi.c ****     if(values[5]==(char)configuration && ptr->type==0x02) // if descr = confi 
 2318               		.loc 1 215 5 is_stmt 1 view .LVU646
 215:../usbn2mc/main/usbnapi.c ****     if(values[5]==(char)configuration && ptr->type==0x02) // if descr = confi 
 2319               		.loc 1 215 12 is_stmt 0 view .LVU647
 2320 0810 A081      		ld r26,Z
 2321 0812 B181      		ldd r27,Z+1
 2322               	.LVL206:
 216:../usbn2mc/main/usbnapi.c ****     {
 2323               		.loc 1 216 5 is_stmt 1 view .LVU648
 216:../usbn2mc/main/usbnapi.c ****     {
 2324               		.loc 1 216 7 is_stmt 0 view .LVU649
 2325 0814 1596      		adiw r26,5
 2326 0816 8C91      		ld r24,X
 2327 0818 1597      		sbiw r26,5
 2328 081a 8113      		cpse r24,r17
 2329 081c 00C0      		rjmp .L116
 216:../usbn2mc/main/usbnapi.c ****     {
 2330               		.loc 1 216 39 discriminator 1 view .LVU650
 2331 081e 8281      		ldd r24,Z+2
 2332 0820 8230      		cpi r24,lo8(2)
 2333 0822 01F4      		brne .L116
 218:../usbn2mc/main/usbnapi.c ****       index =  values[4];
 2334               		.loc 1 218 7 is_stmt 1 view .LVU651
 218:../usbn2mc/main/usbnapi.c ****       index =  values[4];
 2335               		.loc 1 218 16 is_stmt 0 view .LVU652
 2336 0824 1496      		adiw r26,4
 2337 0826 CC90      		ld r12,X
 2338 0828 1497      		sbiw r26,4
 2339               	.LVL207:
 218:../usbn2mc/main/usbnapi.c ****       index =  values[4];
 2340               		.loc 1 218 16 view .LVU653
 2341 082a C394      		inc r12
 2342 082c 1496      		adiw r26,4
 2343 082e CC92      		st X,r12
 219:../usbn2mc/main/usbnapi.c ****     }
 2344               		.loc 1 219 7 is_stmt 1 view .LVU654
 219:../usbn2mc/main/usbnapi.c ****     }
 2345               		.loc 1 219 13 is_stmt 0 view .LVU655
 2346 0830 D12C      		mov r13,__zero_reg__
 2347               	.L116:
 2348               	.LVL208:
 221:../usbn2mc/main/usbnapi.c ****   }
 2349               		.loc 1 221 5 is_stmt 1 view .LVU656
 221:../usbn2mc/main/usbnapi.c ****   }
 2350               		.loc 1 221 8 is_stmt 0 view .LVU657
 2351 0832 0780      		ldd __tmp_reg__,Z+7
 2352 0834 F085      		ldd r31,Z+8
 2353 0836 E02D      		mov r30,__tmp_reg__
 2354               	.LVL209:
 221:../usbn2mc/main/usbnapi.c ****   }
 2355               		.loc 1 221 8 view .LVU658
 2356 0838 00C0      		rjmp .L115
 2357               		.cfi_endproc
 2358               	.LFE26:
 2360               	.global	USBNAddInterface
 2362               	USBNAddInterface:
 2363               	.LVL210:
 2364               	.LFB27:
 244:../usbn2mc/main/usbnapi.c ****   int index=0;
 2365               		.loc 1 244 1 is_stmt 1 view -0
 2366               		.cfi_startproc
 244:../usbn2mc/main/usbnapi.c ****   int index=0;
 2367               		.loc 1 244 1 is_stmt 0 view .LVU660
 2368 083a CF92      		push r12
 2369               		.cfi_def_cfa_offset 3
 2370               		.cfi_offset 12, -2
 2371 083c DF92      		push r13
 2372               		.cfi_def_cfa_offset 4
 2373               		.cfi_offset 13, -3
 2374 083e EF92      		push r14
 2375               		.cfi_def_cfa_offset 5
 2376               		.cfi_offset 14, -4
 2377 0840 0F93      		push r16
 2378               		.cfi_def_cfa_offset 6
 2379               		.cfi_offset 16, -5
 2380 0842 1F93      		push r17
 2381               		.cfi_def_cfa_offset 7
 2382               		.cfi_offset 17, -6
 2383 0844 CF93      		push r28
 2384               		.cfi_def_cfa_offset 8
 2385               		.cfi_offset 28, -7
 2386 0846 DF93      		push r29
 2387               		.cfi_def_cfa_offset 9
 2388               		.cfi_offset 29, -8
 2389               	/* prologue: function */
 2390               	/* frame size = 0 */
 2391               	/* stack size = 7 */
 2392               	.L__stack_usage = 7
 2393 0848 182F      		mov r17,r24
 2394 084a 062F      		mov r16,r22
 245:../usbn2mc/main/usbnapi.c ****   // get new interface number
 2395               		.loc 1 245 3 is_stmt 1 view .LVU661
 2396               	.LVL211:
 247:../usbn2mc/main/usbnapi.c ****   char *values; 	      
 2397               		.loc 1 247 3 view .LVU662
 247:../usbn2mc/main/usbnapi.c ****   char *values; 	      
 2398               		.loc 1 247 22 is_stmt 0 view .LVU663
 2399 084c E091 0000 		lds r30,DescriptorList
 2400 0850 F091 0000 		lds r31,DescriptorList+1
 2401               	.LVL212:
 248:../usbn2mc/main/usbnapi.c ****   while(ptr != NULL) {
 2402               		.loc 1 248 3 is_stmt 1 view .LVU664
 249:../usbn2mc/main/usbnapi.c ****     values = (char*)ptr->data;	      
 2403               		.loc 1 249 3 view .LVU665
 245:../usbn2mc/main/usbnapi.c ****   // get new interface number
 2404               		.loc 1 245 7 is_stmt 0 view .LVU666
 2405 0854 C12C      		mov r12,__zero_reg__
 2406 0856 D12C      		mov r13,__zero_reg__
 2407               	.LVL213:
 2408               	.L119:
 249:../usbn2mc/main/usbnapi.c ****     values = (char*)ptr->data;	      
 2409               		.loc 1 249 13 is_stmt 1 view .LVU667
 2410 0858 3097      		sbiw r30,0
 2411 085a 01F4      		brne .L121
 259:../usbn2mc/main/usbnapi.c ****   interf = (struct usb_interface_descriptor*)malloc(sizeof(struct usb_interface_descriptor));
 2412               		.loc 1 259 3 view .LVU668
 260:../usbn2mc/main/usbnapi.c ****   interf->bLength = 0x09;  
 2413               		.loc 1 260 3 view .LVU669
 260:../usbn2mc/main/usbnapi.c ****   interf->bLength = 0x09;  
 2414               		.loc 1 260 46 is_stmt 0 view .LVU670
 2415 085c 89E0      		ldi r24,lo8(9)
 2416 085e 90E0      		ldi r25,0
 2417 0860 0E94 0000 		call malloc
 2418               	.LVL214:
 260:../usbn2mc/main/usbnapi.c ****   interf->bLength = 0x09;  
 2419               		.loc 1 260 46 view .LVU671
 2420 0864 EC01      		movw r28,r24
 2421               	.LVL215:
 261:../usbn2mc/main/usbnapi.c ****   interf->bDescriptorType     = INTERFACE;
 2422               		.loc 1 261 3 is_stmt 1 view .LVU672
 261:../usbn2mc/main/usbnapi.c ****   interf->bDescriptorType     = INTERFACE;
 2423               		.loc 1 261 19 is_stmt 0 view .LVU673
 2424 0866 89E0      		ldi r24,lo8(9)
 2425               	.LVL216:
 261:../usbn2mc/main/usbnapi.c ****   interf->bDescriptorType     = INTERFACE;
 2426               		.loc 1 261 19 view .LVU674
 2427 0868 8883      		st Y,r24
 262:../usbn2mc/main/usbnapi.c ****   interf->bInterfaceNumber     = number; // FIXME
 2428               		.loc 1 262 3 is_stmt 1 view .LVU675
 262:../usbn2mc/main/usbnapi.c ****   interf->bInterfaceNumber     = number; // FIXME
 2429               		.loc 1 262 31 is_stmt 0 view .LVU676
 2430 086a 84E0      		ldi r24,lo8(4)
 2431 086c 8983      		std Y+1,r24
 263:../usbn2mc/main/usbnapi.c ****   interf->bAlternateSetting   = 0x00;
 2432               		.loc 1 263 3 is_stmt 1 view .LVU677
 263:../usbn2mc/main/usbnapi.c ****   interf->bAlternateSetting   = 0x00;
 2433               		.loc 1 263 32 is_stmt 0 view .LVU678
 2434 086e 0A83      		std Y+2,r16
 264:../usbn2mc/main/usbnapi.c ****   interf->bNumEndpoints       = 0x00;
 2435               		.loc 1 264 3 is_stmt 1 view .LVU679
 264:../usbn2mc/main/usbnapi.c ****   interf->bNumEndpoints       = 0x00;
 2436               		.loc 1 264 31 is_stmt 0 view .LVU680
 2437 0870 1B82      		std Y+3,__zero_reg__
 265:../usbn2mc/main/usbnapi.c ****   interf->bInterfaceClass     = 0x00;
 2438               		.loc 1 265 3 is_stmt 1 view .LVU681
 265:../usbn2mc/main/usbnapi.c ****   interf->bInterfaceClass     = 0x00;
 2439               		.loc 1 265 31 is_stmt 0 view .LVU682
 2440 0872 1C82      		std Y+4,__zero_reg__
 266:../usbn2mc/main/usbnapi.c ****   interf->bInterfaceSubClass   = 0x00;
 2441               		.loc 1 266 3 is_stmt 1 view .LVU683
 266:../usbn2mc/main/usbnapi.c ****   interf->bInterfaceSubClass   = 0x00;
 2442               		.loc 1 266 31 is_stmt 0 view .LVU684
 2443 0874 1D82      		std Y+5,__zero_reg__
 267:../usbn2mc/main/usbnapi.c ****   interf->bInterfaceProtocol   = 0x00;
 2444               		.loc 1 267 3 is_stmt 1 view .LVU685
 267:../usbn2mc/main/usbnapi.c ****   interf->bInterfaceProtocol   = 0x00;
 2445               		.loc 1 267 32 is_stmt 0 view .LVU686
 2446 0876 1E82      		std Y+6,__zero_reg__
 268:../usbn2mc/main/usbnapi.c ****   interf->iInterface           = 0x00;
 2447               		.loc 1 268 3 is_stmt 1 view .LVU687
 268:../usbn2mc/main/usbnapi.c ****   interf->iInterface           = 0x00;
 2448               		.loc 1 268 32 is_stmt 0 view .LVU688
 2449 0878 1F82      		std Y+7,__zero_reg__
 269:../usbn2mc/main/usbnapi.c ****   
 2450               		.loc 1 269 3 is_stmt 1 view .LVU689
 269:../usbn2mc/main/usbnapi.c ****   
 2451               		.loc 1 269 32 is_stmt 0 view .LVU690
 2452 087a 1886      		std Y+8,__zero_reg__
 271:../usbn2mc/main/usbnapi.c ****   return index;
 2453               		.loc 1 271 3 is_stmt 1 view .LVU691
 2454 087c EC2C      		mov r14,r12
 2455 087e 00E0      		ldi r16,0
 2456 0880 212F      		mov r18,r17
 2457 0882 44E0      		ldi r20,lo8(4)
 2458 0884 69E0      		ldi r22,lo8(9)
 2459 0886 CE01      		movw r24,r28
 2460 0888 0E94 0000 		call _USBNAddToList
 2461               	.LVL217:
 272:../usbn2mc/main/usbnapi.c **** }
 2462               		.loc 1 272 3 view .LVU692
 273:../usbn2mc/main/usbnapi.c **** 
 2463               		.loc 1 273 1 is_stmt 0 view .LVU693
 2464 088c C601      		movw r24,r12
 2465               	/* epilogue start */
 2466 088e DF91      		pop r29
 2467 0890 CF91      		pop r28
 2468               	.LVL218:
 273:../usbn2mc/main/usbnapi.c **** 
 2469               		.loc 1 273 1 view .LVU694
 2470 0892 1F91      		pop r17
 2471 0894 0F91      		pop r16
 2472 0896 EF90      		pop r14
 2473 0898 DF90      		pop r13
 2474 089a CF90      		pop r12
 2475               	.LVL219:
 273:../usbn2mc/main/usbnapi.c **** 
 2476               		.loc 1 273 1 view .LVU695
 2477 089c 0895      		ret
 2478               	.LVL220:
 2479               	.L121:
 250:../usbn2mc/main/usbnapi.c ****     if(values[5]==(char)configuration && ptr->type==0x02) // if descr = confi 
 2480               		.loc 1 250 5 is_stmt 1 view .LVU696
 250:../usbn2mc/main/usbnapi.c ****     if(values[5]==(char)configuration && ptr->type==0x02) // if descr = confi 
 2481               		.loc 1 250 12 is_stmt 0 view .LVU697
 2482 089e A081      		ld r26,Z
 2483 08a0 B181      		ldd r27,Z+1
 2484               	.LVL221:
 251:../usbn2mc/main/usbnapi.c ****     {
 2485               		.loc 1 251 5 is_stmt 1 view .LVU698
 251:../usbn2mc/main/usbnapi.c ****     {
 2486               		.loc 1 251 7 is_stmt 0 view .LVU699
 2487 08a2 1596      		adiw r26,5
 2488 08a4 8C91      		ld r24,X
 2489 08a6 1597      		sbiw r26,5
 2490 08a8 8113      		cpse r24,r17
 2491 08aa 00C0      		rjmp .L120
 251:../usbn2mc/main/usbnapi.c ****     {
 2492               		.loc 1 251 39 discriminator 1 view .LVU700
 2493 08ac 8281      		ldd r24,Z+2
 2494 08ae 8230      		cpi r24,lo8(2)
 2495 08b0 01F4      		brne .L120
 253:../usbn2mc/main/usbnapi.c ****       index =  values[4];
 2496               		.loc 1 253 7 is_stmt 1 view .LVU701
 253:../usbn2mc/main/usbnapi.c ****       index =  values[4];
 2497               		.loc 1 253 16 is_stmt 0 view .LVU702
 2498 08b2 1496      		adiw r26,4
 2499 08b4 CC90      		ld r12,X
 2500 08b6 1497      		sbiw r26,4
 2501               	.LVL222:
 253:../usbn2mc/main/usbnapi.c ****       index =  values[4];
 2502               		.loc 1 253 16 view .LVU703
 2503 08b8 C394      		inc r12
 2504 08ba 1496      		adiw r26,4
 2505 08bc CC92      		st X,r12
 254:../usbn2mc/main/usbnapi.c ****     }
 2506               		.loc 1 254 7 is_stmt 1 view .LVU704
 254:../usbn2mc/main/usbnapi.c ****     }
 2507               		.loc 1 254 13 is_stmt 0 view .LVU705
 2508 08be D12C      		mov r13,__zero_reg__
 2509               	.L120:
 2510               	.LVL223:
 256:../usbn2mc/main/usbnapi.c ****   }
 2511               		.loc 1 256 5 is_stmt 1 view .LVU706
 256:../usbn2mc/main/usbnapi.c ****   }
 2512               		.loc 1 256 8 is_stmt 0 view .LVU707
 2513 08c0 0780      		ldd __tmp_reg__,Z+7
 2514 08c2 F085      		ldd r31,Z+8
 2515 08c4 E02D      		mov r30,__tmp_reg__
 2516               	.LVL224:
 256:../usbn2mc/main/usbnapi.c ****   }
 2517               		.loc 1 256 8 view .LVU708
 2518 08c6 00C0      		rjmp .L119
 2519               		.cfi_endproc
 2520               	.LFE27:
 2522               	.global	_USBNAddEndpoint
 2524               	_USBNAddEndpoint:
 2525               	.LVL225:
 2526               	.LFB33:
 352:../usbn2mc/main/usbnapi.c **** 
 2527               		.loc 1 352 1 is_stmt 1 view -0
 2528               		.cfi_startproc
 352:../usbn2mc/main/usbnapi.c **** 
 2529               		.loc 1 352 1 is_stmt 0 view .LVU710
 2530 08c8 8F92      		push r8
 2531               		.cfi_def_cfa_offset 3
 2532               		.cfi_offset 8, -2
 2533 08ca 9F92      		push r9
 2534               		.cfi_def_cfa_offset 4
 2535               		.cfi_offset 9, -3
 2536 08cc AF92      		push r10
 2537               		.cfi_def_cfa_offset 5
 2538               		.cfi_offset 10, -4
 2539 08ce BF92      		push r11
 2540               		.cfi_def_cfa_offset 6
 2541               		.cfi_offset 11, -5
 2542 08d0 CF92      		push r12
 2543               		.cfi_def_cfa_offset 7
 2544               		.cfi_offset 12, -6
 2545 08d2 EF92      		push r14
 2546               		.cfi_def_cfa_offset 8
 2547               		.cfi_offset 14, -7
 2548 08d4 FF92      		push r15
 2549               		.cfi_def_cfa_offset 9
 2550               		.cfi_offset 15, -8
 2551 08d6 0F93      		push r16
 2552               		.cfi_def_cfa_offset 10
 2553               		.cfi_offset 16, -9
 2554 08d8 1F93      		push r17
 2555               		.cfi_def_cfa_offset 11
 2556               		.cfi_offset 17, -10
 2557 08da CF93      		push r28
 2558               		.cfi_def_cfa_offset 12
 2559               		.cfi_offset 28, -11
 2560 08dc DF93      		push r29
 2561               		.cfi_def_cfa_offset 13
 2562               		.cfi_offset 29, -12
 2563               	/* prologue: function */
 2564               	/* frame size = 0 */
 2565               	/* stack size = 11 */
 2566               	.L__stack_usage = 11
 2567 08de 5C01      		movw r10,r24
 2568 08e0 4B01      		movw r8,r22
 2569 08e2 122F      		mov r17,r18
 355:../usbn2mc/main/usbnapi.c ****   char *values; 	      
 2570               		.loc 1 355 3 is_stmt 1 view .LVU711
 355:../usbn2mc/main/usbnapi.c ****   char *values; 	      
 2571               		.loc 1 355 22 is_stmt 0 view .LVU712
 2572 08e4 E091 0000 		lds r30,DescriptorList
 2573 08e8 F091 0000 		lds r31,DescriptorList+1
 2574               	.LVL226:
 356:../usbn2mc/main/usbnapi.c ****   while(ptr != NULL) {
 2575               		.loc 1 356 3 is_stmt 1 view .LVU713
 357:../usbn2mc/main/usbnapi.c ****     values = (char*)ptr->data;	      
 2576               		.loc 1 357 3 view .LVU714
 2577               	.L123:
 357:../usbn2mc/main/usbnapi.c ****     values = (char*)ptr->data;	      
 2578               		.loc 1 357 13 view .LVU715
 2579 08ec 3097      		sbiw r30,0
 2580 08ee 01F4      		brne .L125
 365:../usbn2mc/main/usbnapi.c ****   endpoint = (struct usb_endpoint_descriptor*)malloc(sizeof(struct usb_endpoint_descriptor));
 2581               		.loc 1 365 3 view .LVU716
 366:../usbn2mc/main/usbnapi.c ****   endpoint->bLength=sizeof(struct usb_endpoint_descriptor);
 2582               		.loc 1 366 3 view .LVU717
 366:../usbn2mc/main/usbnapi.c ****   endpoint->bLength=sizeof(struct usb_endpoint_descriptor);
 2583               		.loc 1 366 47 is_stmt 0 view .LVU718
 2584 08f0 87E0      		ldi r24,lo8(7)
 2585 08f2 90E0      		ldi r25,0
 2586 08f4 0E94 0000 		call malloc
 2587               	.LVL227:
 366:../usbn2mc/main/usbnapi.c ****   endpoint->bLength=sizeof(struct usb_endpoint_descriptor);
 2588               		.loc 1 366 47 view .LVU719
 2589 08f8 EC01      		movw r28,r24
 2590               	.LVL228:
 367:../usbn2mc/main/usbnapi.c ****   endpoint->bDescriptorType   = ENDPOINT;
 2591               		.loc 1 367 3 is_stmt 1 view .LVU720
 367:../usbn2mc/main/usbnapi.c ****   endpoint->bDescriptorType   = ENDPOINT;
 2592               		.loc 1 367 20 is_stmt 0 view .LVU721
 2593 08fa 87E0      		ldi r24,lo8(7)
 2594               	.LVL229:
 367:../usbn2mc/main/usbnapi.c ****   endpoint->bDescriptorType   = ENDPOINT;
 2595               		.loc 1 367 20 view .LVU722
 2596 08fc 8883      		st Y,r24
 368:../usbn2mc/main/usbnapi.c ****   endpoint->bEndpointAddress   = (unsigned char)epadr;
 2597               		.loc 1 368 3 is_stmt 1 view .LVU723
 368:../usbn2mc/main/usbnapi.c ****   endpoint->bEndpointAddress   = (unsigned char)epadr;
 2598               		.loc 1 368 31 is_stmt 0 view .LVU724
 2599 08fe 85E0      		ldi r24,lo8(5)
 2600 0900 8983      		std Y+1,r24
 369:../usbn2mc/main/usbnapi.c ****   endpoint->bmAttributes       = attr;
 2601               		.loc 1 369 3 is_stmt 1 view .LVU725
 369:../usbn2mc/main/usbnapi.c ****   endpoint->bmAttributes       = attr;
 2602               		.loc 1 369 34 is_stmt 0 view .LVU726
 2603 0902 1A83      		std Y+2,r17
 370:../usbn2mc/main/usbnapi.c ****   endpoint->wMaxPacketSize    = (short int)fifosize;  
 2604               		.loc 1 370 3 is_stmt 1 view .LVU727
 370:../usbn2mc/main/usbnapi.c ****   endpoint->wMaxPacketSize    = (short int)fifosize;  
 2605               		.loc 1 370 32 is_stmt 0 view .LVU728
 2606 0904 0B83      		std Y+3,r16
 371:../usbn2mc/main/usbnapi.c ****   endpoint->bIntervall        = (unsigned char)intervall;  
 2607               		.loc 1 371 3 is_stmt 1 view .LVU729
 371:../usbn2mc/main/usbnapi.c ****   endpoint->bIntervall        = (unsigned char)intervall;  
 2608               		.loc 1 371 31 is_stmt 0 view .LVU730
 2609 0906 EC82      		std Y+4,r14
 2610 0908 FD82      		std Y+5,r15
 372:../usbn2mc/main/usbnapi.c ****   
 2611               		.loc 1 372 3 is_stmt 1 view .LVU731
 372:../usbn2mc/main/usbnapi.c ****   
 2612               		.loc 1 372 33 is_stmt 0 view .LVU732
 2613 090a CE82      		std Y+6,r12
 374:../usbn2mc/main/usbnapi.c **** 		    (uint8_t)configuration,(uint8_t)interface,0);
 2614               		.loc 1 374 3 is_stmt 1 view .LVU733
 2615 090c E12C      		mov r14,__zero_reg__
 2616               	.LVL230:
 374:../usbn2mc/main/usbnapi.c **** 		    (uint8_t)configuration,(uint8_t)interface,0);
 2617               		.loc 1 374 3 is_stmt 0 view .LVU734
 2618 090e 082D      		mov r16,r8
 2619               	.LVL231:
 374:../usbn2mc/main/usbnapi.c **** 		    (uint8_t)configuration,(uint8_t)interface,0);
 2620               		.loc 1 374 3 view .LVU735
 2621 0910 2A2D      		mov r18,r10
 2622 0912 45E0      		ldi r20,lo8(5)
 2623 0914 67E0      		ldi r22,lo8(7)
 2624 0916 CE01      		movw r24,r28
 2625 0918 0E94 0000 		call _USBNAddToList
 2626               	.LVL232:
 2627               	/* epilogue start */
 376:../usbn2mc/main/usbnapi.c **** 
 2628               		.loc 1 376 1 view .LVU736
 2629 091c DF91      		pop r29
 2630 091e CF91      		pop r28
 2631               	.LVL233:
 376:../usbn2mc/main/usbnapi.c **** 
 2632               		.loc 1 376 1 view .LVU737
 2633 0920 1F91      		pop r17
 2634 0922 0F91      		pop r16
 2635 0924 FF90      		pop r15
 2636 0926 EF90      		pop r14
 2637 0928 CF90      		pop r12
 2638               	.LVL234:
 376:../usbn2mc/main/usbnapi.c **** 
 2639               		.loc 1 376 1 view .LVU738
 2640 092a BF90      		pop r11
 2641 092c AF90      		pop r10
 2642               	.LVL235:
 376:../usbn2mc/main/usbnapi.c **** 
 2643               		.loc 1 376 1 view .LVU739
 2644 092e 9F90      		pop r9
 2645 0930 8F90      		pop r8
 2646               	.LVL236:
 376:../usbn2mc/main/usbnapi.c **** 
 2647               		.loc 1 376 1 view .LVU740
 2648 0932 0895      		ret
 2649               	.LVL237:
 2650               	.L125:
 358:../usbn2mc/main/usbnapi.c ****     if(configuration==ptr->conf && ptr->index==interface && ptr->type==0x04) // if descr = confi 
 2651               		.loc 1 358 5 is_stmt 1 view .LVU741
 359:../usbn2mc/main/usbnapi.c ****       values[4]++;
 2652               		.loc 1 359 5 view .LVU742
 359:../usbn2mc/main/usbnapi.c ****       values[4]++;
 2653               		.loc 1 359 26 is_stmt 0 view .LVU743
 2654 0934 8481      		ldd r24,Z+4
 359:../usbn2mc/main/usbnapi.c ****       values[4]++;
 2655               		.loc 1 359 7 view .LVU744
 2656 0936 8A15      		cp r24,r10
 2657 0938 1B04      		cpc __zero_reg__,r11
 2658 093a 01F4      		brne .L124
 359:../usbn2mc/main/usbnapi.c ****       values[4]++;
 2659               		.loc 1 359 39 discriminator 1 view .LVU745
 2660 093c 8681      		ldd r24,Z+6
 359:../usbn2mc/main/usbnapi.c ****       values[4]++;
 2661               		.loc 1 359 33 discriminator 1 view .LVU746
 2662 093e 8815      		cp r24,r8
 2663 0940 1904      		cpc __zero_reg__,r9
 2664 0942 01F4      		brne .L124
 359:../usbn2mc/main/usbnapi.c ****       values[4]++;
 2665               		.loc 1 359 58 discriminator 2 view .LVU747
 2666 0944 8281      		ldd r24,Z+2
 2667 0946 8430      		cpi r24,lo8(4)
 2668 0948 01F4      		brne .L124
 358:../usbn2mc/main/usbnapi.c ****     if(configuration==ptr->conf && ptr->index==interface && ptr->type==0x04) // if descr = confi 
 2669               		.loc 1 358 12 view .LVU748
 2670 094a A081      		ld r26,Z
 2671 094c B181      		ldd r27,Z+1
 360:../usbn2mc/main/usbnapi.c ****     ptr=ptr->next;
 2672               		.loc 1 360 7 is_stmt 1 view .LVU749
 360:../usbn2mc/main/usbnapi.c ****     ptr=ptr->next;
 2673               		.loc 1 360 16 is_stmt 0 view .LVU750
 2674 094e 1496      		adiw r26,4
 2675 0950 8C91      		ld r24,X
 2676 0952 1497      		sbiw r26,4
 2677 0954 8F5F      		subi r24,lo8(-(1))
 2678 0956 1496      		adiw r26,4
 2679 0958 8C93      		st X,r24
 2680               	.LVL238:
 2681               	.L124:
 361:../usbn2mc/main/usbnapi.c ****   }
 2682               		.loc 1 361 5 is_stmt 1 view .LVU751
 361:../usbn2mc/main/usbnapi.c ****   }
 2683               		.loc 1 361 8 is_stmt 0 view .LVU752
 2684 095a 0780      		ldd __tmp_reg__,Z+7
 2685 095c F085      		ldd r31,Z+8
 2686 095e E02D      		mov r30,__tmp_reg__
 2687               	.LVL239:
 361:../usbn2mc/main/usbnapi.c ****   }
 2688               		.loc 1 361 8 view .LVU753
 2689 0960 00C0      		rjmp .L123
 2690               		.cfi_endproc
 2691               	.LFE33:
 2693               	.global	USBNAddOutEndpoint
 2695               	USBNAddOutEndpoint:
 2696               	.LVL240:
 2697               	.LFB30:
 314:../usbn2mc/main/usbnapi.c ****   // FIXME (must be defined when set configuration is called)
 2698               		.loc 1 314 1 is_stmt 1 view -0
 2699               		.cfi_startproc
 314:../usbn2mc/main/usbnapi.c ****   // FIXME (must be defined when set configuration is called)
 2700               		.loc 1 314 1 is_stmt 0 view .LVU755
 2701 0962 AF92      		push r10
 2702               		.cfi_def_cfa_offset 3
 2703               		.cfi_offset 10, -2
 2704 0964 BF92      		push r11
 2705               		.cfi_def_cfa_offset 4
 2706               		.cfi_offset 11, -3
 2707 0966 CF92      		push r12
 2708               		.cfi_def_cfa_offset 5
 2709               		.cfi_offset 12, -4
 2710 0968 DF92      		push r13
 2711               		.cfi_def_cfa_offset 6
 2712               		.cfi_offset 13, -5
 2713 096a EF92      		push r14
 2714               		.cfi_def_cfa_offset 7
 2715               		.cfi_offset 14, -6
 2716 096c FF92      		push r15
 2717               		.cfi_def_cfa_offset 8
 2718               		.cfi_offset 15, -7
 2719 096e 0F93      		push r16
 2720               		.cfi_def_cfa_offset 9
 2721               		.cfi_offset 16, -8
 2722               	/* prologue: function */
 2723               	/* frame size = 0 */
 2724               	/* stack size = 7 */
 2725               	.L__stack_usage = 7
 2726 0970 FA01      		movw r30,r20
 316:../usbn2mc/main/usbnapi.c ****   {
 2727               		.loc 1 316 3 is_stmt 1 view .LVU756
 2728 0972 4230      		cpi r20,2
 2729 0974 5105      		cpc r21,__zero_reg__
 2730 0976 01F0      		breq .L127
 2731 0978 4330      		cpi r20,3
 2732 097a 5105      		cpc r21,__zero_reg__
 2733 097c 01F0      		breq .L128
 2734 097e 4130      		cpi r20,1
 2735 0980 5105      		cpc r21,__zero_reg__
 2736 0982 01F4      		brne .L129
 318:../usbn2mc/main/usbnapi.c ****     case 2: rxfifos.rx2=1; rxfifos.func2 = fkt; break;
 2737               		.loc 1 318 13 view .LVU757
 318:../usbn2mc/main/usbnapi.c ****     case 2: rxfifos.rx2=1; rxfifos.func2 = fkt; break;
 2738               		.loc 1 318 24 is_stmt 0 view .LVU758
 2739 0984 41E0      		ldi r20,lo8(1)
 2740               	.LVL241:
 318:../usbn2mc/main/usbnapi.c ****     case 2: rxfifos.rx2=1; rxfifos.func2 = fkt; break;
 2741               		.loc 1 318 24 view .LVU759
 2742 0986 4093 0000 		sts rxfifos,r20
 318:../usbn2mc/main/usbnapi.c ****     case 2: rxfifos.rx2=1; rxfifos.func2 = fkt; break;
 2743               		.loc 1 318 28 is_stmt 1 view .LVU760
 318:../usbn2mc/main/usbnapi.c ****     case 2: rxfifos.rx2=1; rxfifos.func2 = fkt; break;
 2744               		.loc 1 318 42 is_stmt 0 view .LVU761
 2745 098a A092 0000 		sts rxfifos+3,r10
 2746 098e B092 0000 		sts rxfifos+4,r11
 318:../usbn2mc/main/usbnapi.c ****     case 2: rxfifos.rx2=1; rxfifos.func2 = fkt; break;
 2747               		.loc 1 318 49 is_stmt 1 view .LVU762
 2748               	.L129:
 323:../usbn2mc/main/usbnapi.c **** }
 2749               		.loc 1 323 3 view .LVU763
 2750 0992 AF01      		movw r20,r30
 2751 0994 0E94 0000 		call _USBNAddEndpoint
 2752               	.LVL242:
 2753               	/* epilogue start */
 324:../usbn2mc/main/usbnapi.c **** 
 2754               		.loc 1 324 1 is_stmt 0 view .LVU764
 2755 0998 0F91      		pop r16
 2756               	.LVL243:
 324:../usbn2mc/main/usbnapi.c **** 
 2757               		.loc 1 324 1 view .LVU765
 2758 099a FF90      		pop r15
 2759 099c EF90      		pop r14
 2760               	.LVL244:
 324:../usbn2mc/main/usbnapi.c **** 
 2761               		.loc 1 324 1 view .LVU766
 2762 099e DF90      		pop r13
 2763 09a0 CF90      		pop r12
 2764               	.LVL245:
 324:../usbn2mc/main/usbnapi.c **** 
 2765               		.loc 1 324 1 view .LVU767
 2766 09a2 BF90      		pop r11
 2767 09a4 AF90      		pop r10
 2768               	.LVL246:
 324:../usbn2mc/main/usbnapi.c **** 
 2769               		.loc 1 324 1 view .LVU768
 2770 09a6 0895      		ret
 2771               	.LVL247:
 2772               	.L127:
 319:../usbn2mc/main/usbnapi.c ****     case 3: rxfifos.rx3=1; rxfifos.func3 = fkt; break;
 2773               		.loc 1 319 13 is_stmt 1 view .LVU769
 319:../usbn2mc/main/usbnapi.c ****     case 3: rxfifos.rx3=1; rxfifos.func3 = fkt; break;
 2774               		.loc 1 319 24 is_stmt 0 view .LVU770
 2775 09a8 41E0      		ldi r20,lo8(1)
 2776               	.LVL248:
 319:../usbn2mc/main/usbnapi.c ****     case 3: rxfifos.rx3=1; rxfifos.func3 = fkt; break;
 2777               		.loc 1 319 24 view .LVU771
 2778 09aa 4093 0000 		sts rxfifos+1,r20
 319:../usbn2mc/main/usbnapi.c ****     case 3: rxfifos.rx3=1; rxfifos.func3 = fkt; break;
 2779               		.loc 1 319 28 is_stmt 1 view .LVU772
 319:../usbn2mc/main/usbnapi.c ****     case 3: rxfifos.rx3=1; rxfifos.func3 = fkt; break;
 2780               		.loc 1 319 42 is_stmt 0 view .LVU773
 2781 09ae A092 0000 		sts rxfifos+5,r10
 2782 09b2 B092 0000 		sts rxfifos+6,r11
 319:../usbn2mc/main/usbnapi.c ****     case 3: rxfifos.rx3=1; rxfifos.func3 = fkt; break;
 2783               		.loc 1 319 49 is_stmt 1 view .LVU774
 2784 09b6 00C0      		rjmp .L129
 2785               	.LVL249:
 2786               	.L128:
 320:../usbn2mc/main/usbnapi.c ****   }
 2787               		.loc 1 320 13 view .LVU775
 320:../usbn2mc/main/usbnapi.c ****   }
 2788               		.loc 1 320 24 is_stmt 0 view .LVU776
 2789 09b8 41E0      		ldi r20,lo8(1)
 2790               	.LVL250:
 320:../usbn2mc/main/usbnapi.c ****   }
 2791               		.loc 1 320 24 view .LVU777
 2792 09ba 4093 0000 		sts rxfifos+2,r20
 320:../usbn2mc/main/usbnapi.c ****   }
 2793               		.loc 1 320 28 is_stmt 1 view .LVU778
 320:../usbn2mc/main/usbnapi.c ****   }
 2794               		.loc 1 320 42 is_stmt 0 view .LVU779
 2795 09be A092 0000 		sts rxfifos+7,r10
 2796 09c2 B092 0000 		sts rxfifos+8,r11
 320:../usbn2mc/main/usbnapi.c ****   }
 2797               		.loc 1 320 49 is_stmt 1 view .LVU780
 2798 09c6 00C0      		rjmp .L129
 2799               		.cfi_endproc
 2800               	.LFE30:
 2802               	.global	USBNAddInEndpoint
 2804               	USBNAddInEndpoint:
 2805               	.LVL251:
 2806               	.LFB31:
 329:../usbn2mc/main/usbnapi.c ****   // FIXME (must be defined when set configuration is called)
 2807               		.loc 1 329 1 view -0
 2808               		.cfi_startproc
 329:../usbn2mc/main/usbnapi.c ****   // FIXME (must be defined when set configuration is called)
 2809               		.loc 1 329 1 is_stmt 0 view .LVU782
 2810 09c8 AF92      		push r10
 2811               		.cfi_def_cfa_offset 3
 2812               		.cfi_offset 10, -2
 2813 09ca BF92      		push r11
 2814               		.cfi_def_cfa_offset 4
 2815               		.cfi_offset 11, -3
 2816 09cc CF92      		push r12
 2817               		.cfi_def_cfa_offset 5
 2818               		.cfi_offset 12, -4
 2819 09ce DF92      		push r13
 2820               		.cfi_def_cfa_offset 6
 2821               		.cfi_offset 13, -5
 2822 09d0 EF92      		push r14
 2823               		.cfi_def_cfa_offset 7
 2824               		.cfi_offset 14, -6
 2825 09d2 FF92      		push r15
 2826               		.cfi_def_cfa_offset 8
 2827               		.cfi_offset 15, -7
 2828 09d4 0F93      		push r16
 2829               		.cfi_def_cfa_offset 9
 2830               		.cfi_offset 16, -8
 2831 09d6 CF93      		push r28
 2832               		.cfi_def_cfa_offset 10
 2833               		.cfi_offset 28, -9
 2834 09d8 DF93      		push r29
 2835               		.cfi_def_cfa_offset 11
 2836               		.cfi_offset 29, -10
 2837               	/* prologue: function */
 2838               	/* frame size = 0 */
 2839               	/* stack size = 9 */
 2840               	.L__stack_usage = 9
 2841 09da FA01      		movw r30,r20
 2842 09dc E901      		movw r28,r18
 2843 09de D501      		movw r26,r10
 331:../usbn2mc/main/usbnapi.c ****   {
 2844               		.loc 1 331 3 is_stmt 1 view .LVU783
 331:../usbn2mc/main/usbnapi.c ****   {
 2845               		.loc 1 331 5 is_stmt 0 view .LVU784
 2846 09e0 AB2B      		or r26,r27
 2847 09e2 01F0      		breq .L131
 333:../usbn2mc/main/usbnapi.c ****     {
 2848               		.loc 1 333 5 is_stmt 1 view .LVU785
 2849 09e4 4230      		cpi r20,2
 2850 09e6 5105      		cpc r21,__zero_reg__
 2851 09e8 01F0      		breq .L132
 2852 09ea 4330      		cpi r20,3
 2853 09ec 5105      		cpc r21,__zero_reg__
 2854 09ee 01F0      		breq .L133
 2855 09f0 4130      		cpi r20,1
 2856 09f2 5105      		cpc r21,__zero_reg__
 2857 09f4 01F4      		brne .L131
 335:../usbn2mc/main/usbnapi.c ****       case 2: txfifos.tx2=1; txfifos.func2 = fkt; break;
 2858               		.loc 1 335 15 view .LVU786
 335:../usbn2mc/main/usbnapi.c ****       case 2: txfifos.tx2=1; txfifos.func2 = fkt; break;
 2859               		.loc 1 335 26 is_stmt 0 view .LVU787
 2860 09f6 21E0      		ldi r18,lo8(1)
 2861               	.LVL252:
 335:../usbn2mc/main/usbnapi.c ****       case 2: txfifos.tx2=1; txfifos.func2 = fkt; break;
 2862               		.loc 1 335 26 view .LVU788
 2863 09f8 2093 0000 		sts txfifos,r18
 335:../usbn2mc/main/usbnapi.c ****       case 2: txfifos.tx2=1; txfifos.func2 = fkt; break;
 2864               		.loc 1 335 30 is_stmt 1 view .LVU789
 335:../usbn2mc/main/usbnapi.c ****       case 2: txfifos.tx2=1; txfifos.func2 = fkt; break;
 2865               		.loc 1 335 44 is_stmt 0 view .LVU790
 2866 09fc B092 0000 		sts txfifos+3+1,r11
 2867 0a00 A092 0000 		sts txfifos+3,r10
 335:../usbn2mc/main/usbnapi.c ****       case 2: txfifos.tx2=1; txfifos.func2 = fkt; break;
 2868               		.loc 1 335 51 is_stmt 1 view .LVU791
 2869               	.L131:
 341:../usbn2mc/main/usbnapi.c **** }
 2870               		.loc 1 341 3 view .LVU792
 2871 0a04 9E01      		movw r18,r28
 2872 0a06 2058      		subi r18,-128
 2873 0a08 3F4F      		sbci r19,-1
 2874 0a0a AF01      		movw r20,r30
 2875               	.LVL253:
 341:../usbn2mc/main/usbnapi.c **** }
 2876               		.loc 1 341 3 is_stmt 0 view .LVU793
 2877 0a0c 0E94 0000 		call _USBNAddEndpoint
 2878               	.LVL254:
 2879               	/* epilogue start */
 342:../usbn2mc/main/usbnapi.c **** 
 2880               		.loc 1 342 1 view .LVU794
 2881 0a10 DF91      		pop r29
 2882 0a12 CF91      		pop r28
 2883               	.LVL255:
 342:../usbn2mc/main/usbnapi.c **** 
 2884               		.loc 1 342 1 view .LVU795
 2885 0a14 0F91      		pop r16
 2886               	.LVL256:
 342:../usbn2mc/main/usbnapi.c **** 
 2887               		.loc 1 342 1 view .LVU796
 2888 0a16 FF90      		pop r15
 2889 0a18 EF90      		pop r14
 2890               	.LVL257:
 342:../usbn2mc/main/usbnapi.c **** 
 2891               		.loc 1 342 1 view .LVU797
 2892 0a1a DF90      		pop r13
 2893 0a1c CF90      		pop r12
 2894               	.LVL258:
 342:../usbn2mc/main/usbnapi.c **** 
 2895               		.loc 1 342 1 view .LVU798
 2896 0a1e BF90      		pop r11
 2897 0a20 AF90      		pop r10
 2898               	.LVL259:
 342:../usbn2mc/main/usbnapi.c **** 
 2899               		.loc 1 342 1 view .LVU799
 2900 0a22 0895      		ret
 2901               	.LVL260:
 2902               	.L132:
 336:../usbn2mc/main/usbnapi.c ****       case 3: txfifos.tx3=1; txfifos.func3 = fkt; break;
 2903               		.loc 1 336 15 is_stmt 1 view .LVU800
 336:../usbn2mc/main/usbnapi.c ****       case 3: txfifos.tx3=1; txfifos.func3 = fkt; break;
 2904               		.loc 1 336 26 is_stmt 0 view .LVU801
 2905 0a24 21E0      		ldi r18,lo8(1)
 2906               	.LVL261:
 336:../usbn2mc/main/usbnapi.c ****       case 3: txfifos.tx3=1; txfifos.func3 = fkt; break;
 2907               		.loc 1 336 26 view .LVU802
 2908 0a26 2093 0000 		sts txfifos+1,r18
 336:../usbn2mc/main/usbnapi.c ****       case 3: txfifos.tx3=1; txfifos.func3 = fkt; break;
 2909               		.loc 1 336 30 is_stmt 1 view .LVU803
 336:../usbn2mc/main/usbnapi.c ****       case 3: txfifos.tx3=1; txfifos.func3 = fkt; break;
 2910               		.loc 1 336 44 is_stmt 0 view .LVU804
 2911 0a2a B092 0000 		sts txfifos+5+1,r11
 2912 0a2e A092 0000 		sts txfifos+5,r10
 336:../usbn2mc/main/usbnapi.c ****       case 3: txfifos.tx3=1; txfifos.func3 = fkt; break;
 2913               		.loc 1 336 51 is_stmt 1 view .LVU805
 2914 0a32 00C0      		rjmp .L131
 2915               	.LVL262:
 2916               	.L133:
 337:../usbn2mc/main/usbnapi.c ****     }
 2917               		.loc 1 337 15 view .LVU806
 337:../usbn2mc/main/usbnapi.c ****     }
 2918               		.loc 1 337 26 is_stmt 0 view .LVU807
 2919 0a34 21E0      		ldi r18,lo8(1)
 2920               	.LVL263:
 337:../usbn2mc/main/usbnapi.c ****     }
 2921               		.loc 1 337 26 view .LVU808
 2922 0a36 2093 0000 		sts txfifos+2,r18
 337:../usbn2mc/main/usbnapi.c ****     }
 2923               		.loc 1 337 30 is_stmt 1 view .LVU809
 337:../usbn2mc/main/usbnapi.c ****     }
 2924               		.loc 1 337 44 is_stmt 0 view .LVU810
 2925 0a3a B092 0000 		sts txfifos+7+1,r11
 2926 0a3e A092 0000 		sts txfifos+7,r10
 337:../usbn2mc/main/usbnapi.c ****     }
 2927               		.loc 1 337 51 is_stmt 1 view .LVU811
 2928 0a42 00C0      		rjmp .L131
 2929               		.cfi_endproc
 2930               	.LFE31:
 2932               	.Letext0:
 2933               		.file 2 "/opt/local/lib/gcc/avr/14.2.0/include/stddef.h"
 2934               		.file 3 "/opt/local/avr/include/stdint.h"
 2935               		.file 4 "../usbn2mc/main/../usb11spec.h"
 2936               		.file 5 "../usbn2mc/main/usbn960x.h"
 2937               		.file 6 "/opt/local/avr/include/string.h"
 2938               		.file 7 "/opt/local/avr/include/stdlib.h"